; Listing generated by Microsoft (R) Optimizing Compiler Version 15.00.30729.01 

	TITLE	F:\20120709_Enterprise_CT_V2.0_workspace\VC2008_PopPad3_c\.csdata\src\build\PopFile_6.c
	.686P
	.XMM
	include listing.inc
	.model	flat

INCLUDELIB LIBCMT
INCLUDELIB OLDNAMES

PUBLIC	??_C@_0BL@DOHJFNDD@struct?5PopFileWrite_csut0p?$AA@ ; `string'
PUBLIC	??_C@_0BD@DBCBGKEL@PopFileWrite_csut0?$AA@	; `string'
PUBLIC	_PopFileWrite_csut0
PUBLIC	??_C@_0BN@EPBJNCNF@struct?5PopFileSaveDlg_csut0p?$AA@ ; `string'
PUBLIC	??_C@_0BF@MDNAKJCN@PopFileSaveDlg_csut0?$AA@	; `string'
PUBLIC	_PopFileSaveDlg_csut0
PUBLIC	??_C@_0BK@CPFIEHNC@struct?5PopFileRead_csut0p?$AA@ ; `string'
PUBLIC	??_C@_0BC@LFIMCEEA@PopFileRead_csut0?$AA@	; `string'
PUBLIC	_PopFileRead_csut0
PUBLIC	??_C@_0BN@MNGMFHHO@struct?5PopFileOpenDlg_csut0p?$AA@ ; `string'
PUBLIC	??_C@_0BF@LOKBMDHL@PopFileOpenDlg_csut0?$AA@	; `string'
PUBLIC	_PopFileOpenDlg_csut0
PUBLIC	??_C@_0CA@NPKDBDDM@struct?5PopFileInitialize_csut0p?$AA@ ; `string'
PUBLIC	??_C@_0BI@KFNHODLD@PopFileInitialize_csut0?$AA@	; `string'
PUBLIC	_PopFileInitialize_csut0
PUBLIC	__TFX_testFunctionsFor_1407374883553280
PUBLIC	__TFX_testFunctionsFor_1688849860263936
PUBLIC	__TFX_testFunctionsFor_1970324836974592
PUBLIC	__TFX_testFunctionsFor_2251799813685248
PUBLIC	__TFX_testFunctionsFor_2533274790395904
PUBLIC	__TFX_SuiteList
EXTRN	__TFX_testFunctionsFor_6192449487634432:BYTE
EXTRN	__TFX_testFunctionsFor_5910974510923776:BYTE
EXTRN	__TFX_testFunctionsFor_5629499534213120:BYTE
EXTRN	__TFX_testFunctionsFor_5348024557502464:BYTE
EXTRN	__TFX_testFunctionsFor_5066549580791808:BYTE
EXTRN	__TFX_testFunctionsFor_4785074604081152:BYTE
EXTRN	__TFX_testFunctionsFor_4503599627370496:BYTE
EXTRN	__TFX_testFunctionsFor_4222124650659840:BYTE
EXTRN	__TFX_testFunctionsFor_3940649673949184:BYTE
EXTRN	__TFX_testFunctionsFor_3659174697238528:BYTE
EXTRN	__TFX_testFunctionsFor_3377699720527872:BYTE
EXTRN	__TFX_testFunctionsFor_3096224743817216:BYTE
EXTRN	__TFX_testFunctionsFor_2814749767106560:BYTE
EXTRN	__TFX_testFunctionsFor_1125899906842624:BYTE
EXTRN	__TFX_testFunctionsFor_844424930131968:BYTE
EXTRN	__TFX_testFunctionsFor_562949953421312:BYTE
EXTRN	__TFX_testFunctionsFor_281474976710656:BYTE
;	COMDAT ??_C@_0BL@DOHJFNDD@struct?5PopFileWrite_csut0p?$AA@
CONST	SEGMENT
??_C@_0BL@DOHJFNDD@struct?5PopFileWrite_csut0p?$AA@ DB 'struct PopFileWri'
	DB	'te_csut0p', 00H				; `string'
CONST	ENDS
;	COMDAT ??_C@_0BD@DBCBGKEL@PopFileWrite_csut0?$AA@
CONST	SEGMENT
??_C@_0BD@DBCBGKEL@PopFileWrite_csut0?$AA@ DB 'PopFileWrite_csut0', 00H ; `string'
CONST	ENDS
;	COMDAT ??_C@_0BN@EPBJNCNF@struct?5PopFileSaveDlg_csut0p?$AA@
CONST	SEGMENT
??_C@_0BN@EPBJNCNF@struct?5PopFileSaveDlg_csut0p?$AA@ DB 'struct PopFileS'
	DB	'aveDlg_csut0p', 00H				; `string'
CONST	ENDS
;	COMDAT ??_C@_0BF@MDNAKJCN@PopFileSaveDlg_csut0?$AA@
CONST	SEGMENT
??_C@_0BF@MDNAKJCN@PopFileSaveDlg_csut0?$AA@ DB 'PopFileSaveDlg_csut0', 00H ; `string'
CONST	ENDS
;	COMDAT ??_C@_0BK@CPFIEHNC@struct?5PopFileRead_csut0p?$AA@
CONST	SEGMENT
??_C@_0BK@CPFIEHNC@struct?5PopFileRead_csut0p?$AA@ DB 'struct PopFileRead'
	DB	'_csut0p', 00H				; `string'
CONST	ENDS
;	COMDAT ??_C@_0BC@LFIMCEEA@PopFileRead_csut0?$AA@
CONST	SEGMENT
??_C@_0BC@LFIMCEEA@PopFileRead_csut0?$AA@ DB 'PopFileRead_csut0', 00H ; `string'
CONST	ENDS
;	COMDAT ??_C@_0BN@MNGMFHHO@struct?5PopFileOpenDlg_csut0p?$AA@
CONST	SEGMENT
??_C@_0BN@MNGMFHHO@struct?5PopFileOpenDlg_csut0p?$AA@ DB 'struct PopFileO'
	DB	'penDlg_csut0p', 00H				; `string'
CONST	ENDS
;	COMDAT ??_C@_0BF@LOKBMDHL@PopFileOpenDlg_csut0?$AA@
CONST	SEGMENT
??_C@_0BF@LOKBMDHL@PopFileOpenDlg_csut0?$AA@ DB 'PopFileOpenDlg_csut0', 00H ; `string'
CONST	ENDS
;	COMDAT ??_C@_0CA@NPKDBDDM@struct?5PopFileInitialize_csut0p?$AA@
CONST	SEGMENT
??_C@_0CA@NPKDBDDM@struct?5PopFileInitialize_csut0p?$AA@ DB 'struct PopFi'
	DB	'leInitialize_csut0p', 00H			; `string'
CONST	ENDS
;	COMDAT ??_C@_0BI@KFNHODLD@PopFileInitialize_csut0?$AA@
CONST	SEGMENT
??_C@_0BI@KFNHODLD@PopFileInitialize_csut0?$AA@ DB 'PopFileInitialize_csu'
	DB	't0', 00H					; `string'
CONST	ENDS
_DATA	SEGMENT
?szFilter@?1??PopFileInitialize@@9@9 DB 'Text Files (*.TXT)', 00H, '*.txt'
	DB	00H, 'ASCII Files (*.ASC)', 00H, '*.asc', 00H, 'All Files (*.*'
	DB	')', 00H, '*.*', 00H, 00H, 00H		; `PopFileInitialize'::`2'::szFilter
	ORG $+7
__TFX_testFunctionsFor_1407374883553280 DD 04H
	DD	FLAT:_PopFileInitialize_csut0
	DD	FLAT:??_C@_0BI@KFNHODLD@PopFileInitialize_csut0?$AA@
	DD	FLAT:??_C@_0CA@NPKDBDDM@struct?5PopFileInitialize_csut0p?$AA@
	DD	08H
	DD	00H
	DD	00H
	DD	00H
	DD	05H
	DD	00H
	DD	00H
	DD	00H
	DD	00H
	DD	00H
	DD	00H
	DD	00H
__TFX_testFunctionsFor_1688849860263936 DD 04H
	DD	FLAT:_PopFileOpenDlg_csut0
	DD	FLAT:??_C@_0BF@LOKBMDHL@PopFileOpenDlg_csut0?$AA@
	DD	FLAT:??_C@_0BN@MNGMFHHO@struct?5PopFileOpenDlg_csut0p?$AA@
	DD	08H
	DD	00H
	DD	00H
	DD	00H
	DD	05H
	DD	00H
	DD	00H
	DD	00H
	DD	00H
	DD	00H
	DD	00H
	DD	00H
__TFX_testFunctionsFor_1970324836974592 DD 04H
	DD	FLAT:_PopFileRead_csut0
	DD	FLAT:??_C@_0BC@LFIMCEEA@PopFileRead_csut0?$AA@
	DD	FLAT:??_C@_0BK@CPFIEHNC@struct?5PopFileRead_csut0p?$AA@
	DD	08H
	DD	00H
	DD	00H
	DD	00H
	DD	05H
	DD	00H
	DD	00H
	DD	00H
	DD	00H
	DD	00H
	DD	00H
	DD	00H
__TFX_testFunctionsFor_2251799813685248 DD 04H
	DD	FLAT:_PopFileSaveDlg_csut0
	DD	FLAT:??_C@_0BF@MDNAKJCN@PopFileSaveDlg_csut0?$AA@
	DD	FLAT:??_C@_0BN@EPBJNCNF@struct?5PopFileSaveDlg_csut0p?$AA@
	DD	08H
	DD	00H
	DD	00H
	DD	00H
	DD	05H
	DD	00H
	DD	00H
	DD	00H
	DD	00H
	DD	00H
	DD	00H
	DD	00H
__TFX_testFunctionsFor_2533274790395904 DD 04H
	DD	FLAT:_PopFileWrite_csut0
	DD	FLAT:??_C@_0BD@DBCBGKEL@PopFileWrite_csut0?$AA@
	DD	FLAT:??_C@_0BL@DOHJFNDD@struct?5PopFileWrite_csut0p?$AA@
	DD	08H
	DD	00H
	DD	00H
	DD	00H
	DD	05H
	DD	00H
	DD	00H
	DD	00H
	DD	00H
	DD	00H
	DD	00H
	DD	00H
__TFX_SuiteList DD FLAT:__TFX_testFunctionsFor_281474976710656
	DD	FLAT:__TFX_testFunctionsFor_562949953421312
	DD	FLAT:__TFX_testFunctionsFor_844424930131968
	DD	FLAT:__TFX_testFunctionsFor_1125899906842624
	DD	FLAT:__TFX_testFunctionsFor_1407374883553280
	DD	FLAT:__TFX_testFunctionsFor_1688849860263936
	DD	FLAT:__TFX_testFunctionsFor_1970324836974592
	DD	FLAT:__TFX_testFunctionsFor_2251799813685248
	DD	FLAT:__TFX_testFunctionsFor_2533274790395904
	DD	FLAT:__TFX_testFunctionsFor_2814749767106560
	DD	FLAT:__TFX_testFunctionsFor_3096224743817216
	DD	FLAT:__TFX_testFunctionsFor_3377699720527872
	DD	FLAT:__TFX_testFunctionsFor_3659174697238528
	DD	FLAT:__TFX_testFunctionsFor_3940649673949184
	DD	FLAT:__TFX_testFunctionsFor_4222124650659840
	DD	FLAT:__TFX_testFunctionsFor_4503599627370496
	DD	FLAT:__TFX_testFunctionsFor_4785074604081152
	DD	FLAT:__TFX_testFunctionsFor_5066549580791808
	DD	FLAT:__TFX_testFunctionsFor_5348024557502464
	DD	FLAT:__TFX_testFunctionsFor_5629499534213120
	DD	FLAT:__TFX_testFunctionsFor_5910974510923776
	DD	FLAT:__TFX_testFunctionsFor_6192449487634432
	DD	00H
_DATA	ENDS
PUBLIC	??_C@_03CLFHJCDC@txt?$AA@			; `string'
PUBLIC	_PopFileInitialize
EXTRN	_csut_TFX_CoverageBuffer:DWORD
EXTRN	_csut_TFX_LastProbe:DWORD
_BSS	SEGMENT
_ofn	DB	058H DUP (?)
_BSS	ENDS
;	COMDAT ??_C@_03CLFHJCDC@txt?$AA@
; File d:\open source\vs2008\c\poppad3\popfile.c
CONST	SEGMENT
??_C@_03CLFHJCDC@txt?$AA@ DB 'txt', 00H			; `string'
; Function compile flags: /Ogtpy
CONST	ENDS
;	COMDAT _PopFileInitialize
_TEXT	SEGMENT
_hwnd$ = 8						; size = 4
_PopFileInitialize PROC					; COMDAT
; Line 13
	mov	ecx, DWORD PTR _csut_TFX_LastProbe
	xor	eax, eax
	mov	DWORD PTR [ecx], eax
	mov	edx, DWORD PTR _csut_TFX_CoverageBuffer
; Line 19
	mov	ecx, DWORD PTR _hwnd$[esp-4]
	mov	BYTE PTR [edx], 49			; 00000031H
	mov	DWORD PTR _ofn+4, ecx
; Line 26
	mov	ecx, 260				; 00000104H
	mov	DWORD PTR _ofn+32, ecx
; Line 28
	mov	DWORD PTR _ofn+40, ecx
; Line 32
	xor	edx, edx
	mov	WORD PTR _ofn+56, dx
; Line 37
	mov	edx, DWORD PTR _csut_TFX_LastProbe
	mov	DWORD PTR _ofn+8, eax
	mov	DWORD PTR _ofn+16, eax
	mov	DWORD PTR _ofn+20, eax
	mov	DWORD PTR _ofn+24, eax
	mov	DWORD PTR _ofn+28, eax
	mov	DWORD PTR _ofn+36, eax
	mov	DWORD PTR _ofn+44, eax
	mov	DWORD PTR _ofn+48, eax
	mov	DWORD PTR _ofn+52, eax
	xor	ecx, ecx
	mov	DWORD PTR _ofn+64, eax
	mov	DWORD PTR _ofn+68, eax
	mov	DWORD PTR _ofn+72, eax
	mov	DWORD PTR _ofn, 88			; 00000058H
	mov	DWORD PTR _ofn+12, OFFSET ?szFilter@?1??PopFileInitialize@@9@9
	mov	WORD PTR _ofn+58, cx
	mov	DWORD PTR _ofn+60, OFFSET ??_C@_03CLFHJCDC@txt?$AA@
	mov	DWORD PTR [edx], 1
	mov	eax, DWORD PTR _csut_TFX_CoverageBuffer
	mov	BYTE PTR [eax+1], 49			; 00000031H
; Line 38
	ret	0
_PopFileInitialize ENDP
_TEXT	ENDS
PUBLIC	_PopFileOpenDlg
EXTRN	__imp__GetOpenFileNameA@4:PROC
; Function compile flags: /Ogtpy
;	COMDAT _PopFileOpenDlg
_TEXT	SEGMENT
_hwnd$ = 8						; size = 4
_pstrFileName$ = 12					; size = 4
_pstrTitleName$ = 16					; size = 4
_PopFileOpenDlg PROC					; COMDAT
; Line 47
	mov	eax, DWORD PTR _csut_TFX_LastProbe
; Line 48
	mov	edx, DWORD PTR _hwnd$[esp-4]
	mov	DWORD PTR [eax], 2
	mov	ecx, DWORD PTR _csut_TFX_CoverageBuffer
; Line 49
	mov	eax, DWORD PTR _pstrFileName$[esp-4]
	mov	BYTE PTR [ecx+2], 49			; 00000031H
; Line 50
	mov	ecx, DWORD PTR _pstrTitleName$[esp-4]
; Line 53
	push	OFFSET _ofn
	mov	DWORD PTR _ofn+4, edx
	mov	DWORD PTR _ofn+28, eax
	mov	DWORD PTR _ofn+36, ecx
	mov	DWORD PTR _ofn+52, 8196			; 00002004H
	call	DWORD PTR __imp__GetOpenFileNameA@4
	mov	edx, DWORD PTR _csut_TFX_LastProbe
	mov	DWORD PTR [edx], 3
	mov	ecx, DWORD PTR _csut_TFX_CoverageBuffer
	mov	BYTE PTR [ecx+3], 49			; 00000031H
; Line 54
	ret	0
_PopFileOpenDlg ENDP
_TEXT	ENDS
PUBLIC	_PopFileSaveDlg
EXTRN	__imp__GetSaveFileNameA@4:PROC
; Function compile flags: /Ogtpy
;	COMDAT _PopFileSaveDlg
_TEXT	SEGMENT
_hwnd$ = 8						; size = 4
_pstrFileName$ = 12					; size = 4
_pstrTitleName$ = 16					; size = 4
_PopFileSaveDlg PROC					; COMDAT
; Line 63
	mov	eax, DWORD PTR _csut_TFX_LastProbe
; Line 64
	mov	edx, DWORD PTR _hwnd$[esp-4]
	mov	DWORD PTR [eax], 4
	mov	ecx, DWORD PTR _csut_TFX_CoverageBuffer
; Line 65
	mov	eax, DWORD PTR _pstrFileName$[esp-4]
	mov	BYTE PTR [ecx+4], 49			; 00000031H
; Line 66
	mov	ecx, DWORD PTR _pstrTitleName$[esp-4]
; Line 69
	push	OFFSET _ofn
	mov	DWORD PTR _ofn+4, edx
	mov	DWORD PTR _ofn+28, eax
	mov	DWORD PTR _ofn+36, ecx
	mov	DWORD PTR _ofn+52, 2
	call	DWORD PTR __imp__GetSaveFileNameA@4
	mov	edx, DWORD PTR _csut_TFX_LastProbe
	mov	DWORD PTR [edx], 5
	mov	ecx, DWORD PTR _csut_TFX_CoverageBuffer
	mov	BYTE PTR [ecx+5], 49			; 00000031H
; Line 70
	ret	0
_PopFileSaveDlg ENDP
_TEXT	ENDS
PUBLIC	_PopFileRead
EXTRN	_free:PROC
EXTRN	__imp__SetWindowTextA@8:PROC
EXTRN	__imp__lstrcpyA@8:PROC
EXTRN	__imp__WideCharToMultiByte@32:PROC
EXTRN	__imp__IsTextUnicode@12:PROC
EXTRN	__imp__CloseHandle@4:PROC
EXTRN	__imp__ReadFile@20:PROC
EXTRN	_malloc:PROC
EXTRN	__imp__GetFileSize@8:PROC
EXTRN	__imp__CreateFileA@28:PROC
; Function compile flags: /Ogtpy
;	COMDAT _PopFileRead
_TEXT	SEGMENT
_iUniTest$ = -12					; size = 4
_pBuffer$ = -8						; size = 4
_dwBytesRead$ = -4					; size = 4
_hwndEdit$ = 8						; size = 4
_pstrFileName$ = 12					; size = 4
_PopFileRead PROC					; COMDAT
; Line 79
	mov	eax, DWORD PTR _csut_TFX_LastProbe
	sub	esp, 12					; 0000000cH
	push	ebx
	push	esi
; Line 90
	push	0
	push	0
	mov	DWORD PTR [eax], 6
	mov	ecx, DWORD PTR _csut_TFX_CoverageBuffer
	push	3
	push	0
	mov	bl, 49					; 00000031H
	mov	BYTE PTR [ecx+6], bl
	mov	edx, DWORD PTR _csut_TFX_LastProbe
	mov	ecx, DWORD PTR _pstrFileName$[esp+32]
	push	1
	mov	DWORD PTR [edx], 7
	mov	eax, DWORD PTR _csut_TFX_CoverageBuffer
	push	-2147483648				; 80000000H
	push	ecx
	mov	BYTE PTR [eax+7], bl
	call	DWORD PTR __imp__CreateFileA@28
	mov	esi, eax
	cmp	esi, -1
	jne	SHORT $LN9@PopFileRea
; Line 91
	mov	edx, DWORD PTR _csut_TFX_LastProbe
	mov	DWORD PTR [edx], 8
	mov	eax, DWORD PTR _csut_TFX_CoverageBuffer
	mov	BYTE PTR [eax+8], bl
	mov	ecx, DWORD PTR _csut_TFX_LastProbe
	mov	DWORD PTR [ecx], 23			; 00000017H
	mov	edx, DWORD PTR _csut_TFX_CoverageBuffer
	pop	esi
	mov	BYTE PTR [edx+23], bl
	xor	eax, eax
	pop	ebx
; Line 147
	add	esp, 12					; 0000000cH
	ret	0
$LN9@PopFileRea:
; Line 91
	mov	eax, DWORD PTR _csut_TFX_LastProbe
	push	ebp
	push	edi
	mov	DWORD PTR [eax], 9
	mov	ecx, DWORD PTR _csut_TFX_CoverageBuffer
; Line 96
	push	0
	push	esi
	mov	BYTE PTR [ecx+9], bl
	call	DWORD PTR __imp__GetFileSize@8
	mov	edi, eax
; Line 97
	lea	edx, DWORD PTR [edi+2]
	push	edx
	call	_malloc
	add	esp, 4
	mov	ebp, eax
; Line 101
	push	0
	lea	eax, DWORD PTR _dwBytesRead$[esp+32]
	push	eax
	push	edi
	push	ebp
	push	esi
	mov	DWORD PTR _pBuffer$[esp+48], ebp
	call	DWORD PTR __imp__ReadFile@20
; Line 102
	push	esi
	call	DWORD PTR __imp__CloseHandle@4
; Line 103
	mov	BYTE PTR [edi+ebp], 0
; Line 104
	mov	BYTE PTR [edi+ebp+1], 0
; Line 108
	mov	ecx, DWORD PTR _csut_TFX_LastProbe
; Line 110
	lea	eax, DWORD PTR _iUniTest$[esp+28]
	push	eax
	mov	DWORD PTR _iUniTest$[esp+32], 136	; 00000088H
	mov	DWORD PTR [ecx], 10			; 0000000aH
	mov	edx, DWORD PTR _csut_TFX_CoverageBuffer
	push	edi
	push	ebp
	mov	BYTE PTR [edx+10], bl
	call	DWORD PTR __imp__IsTextUnicode@12
	test	eax, eax
	je	$LN7@PopFileRea
; Line 111
	mov	ecx, DWORD PTR _csut_TFX_LastProbe
	mov	DWORD PTR [ecx], 21			; 00000015H
	mov	edx, DWORD PTR _csut_TFX_CoverageBuffer
	mov	BYTE PTR [edx+21], bl
; Line 113
	mov	eax, DWORD PTR _csut_TFX_LastProbe
	mov	DWORD PTR [eax], 11			; 0000000bH
	mov	ecx, DWORD PTR _csut_TFX_CoverageBuffer
	mov	BYTE PTR [ecx+11], bl
; Line 116
	mov	edx, DWORD PTR _csut_TFX_LastProbe
	sub	edi, 2
	test	BYTE PTR _iUniTest$[esp+28], -128	; ffffff80H
	lea	esi, DWORD PTR [ebp+2]
	je	$LN6@PopFileRea
	mov	DWORD PTR [edx], 17			; 00000011H
	mov	eax, DWORD PTR _csut_TFX_CoverageBuffer
	mov	BYTE PTR [eax+17], bl
; Line 117
	mov	eax, edi
	cdq
	sub	eax, edx
	mov	ebp, eax
	xor	ecx, ecx
	sar	ebp, 1
	npad	1
$LL5@PopFileRea:
	mov	edx, DWORD PTR _csut_TFX_CoverageBuffer
	mov	eax, DWORD PTR _csut_TFX_LastProbe
	cmp	BYTE PTR [edx+14], bl
	jne	SHORT $LN12@PopFileRea
	mov	DWORD PTR [eax], 16			; 00000010H
	mov	edx, DWORD PTR _csut_TFX_CoverageBuffer
	mov	BYTE PTR [edx+16], bl
	jmp	SHORT $LN13@PopFileRea
$LN12@PopFileRea:
	mov	DWORD PTR [eax], 13			; 0000000dH
	mov	edx, DWORD PTR _csut_TFX_CoverageBuffer
	mov	BYTE PTR [edx+13], bl
$LN13@PopFileRea:
	cmp	ecx, ebp
; Line 118
	mov	eax, DWORD PTR _csut_TFX_LastProbe
	jge	SHORT $LN3@PopFileRea
	mov	DWORD PTR [eax], 14			; 0000000eH
	mov	edx, DWORD PTR _csut_TFX_CoverageBuffer
	mov	BYTE PTR [edx+14], bl
; Line 119
	mov	al, BYTE PTR [esi+ecx*2]
; Line 120
	mov	dl, BYTE PTR [esi+ecx*2+1]
	mov	BYTE PTR [esi+ecx*2], dl
; Line 121
	mov	BYTE PTR [esi+ecx*2+1], al
	mov	eax, DWORD PTR _csut_TFX_LastProbe
	mov	DWORD PTR [eax], 12			; 0000000cH
	mov	edx, DWORD PTR _csut_TFX_CoverageBuffer
	mov	BYTE PTR [edx+12], bl
	inc	ecx
	jmp	SHORT $LL5@PopFileRea
$LN3@PopFileRea:
; Line 122
	mov	DWORD PTR [eax], 15			; 0000000fH
	mov	ecx, DWORD PTR _csut_TFX_CoverageBuffer
	mov	BYTE PTR [ecx+15], bl
	jmp	SHORT $LN2@PopFileRea
$LN6@PopFileRea:
; Line 123
	mov	DWORD PTR [edx], 18			; 00000012H
	mov	eax, DWORD PTR _csut_TFX_CoverageBuffer
	mov	BYTE PTR [eax+18], bl
$LN2@PopFileRea:
; Line 127
	lea	ebp, DWORD PTR [edi+2]
	push	ebp
	call	_malloc
	add	esp, 4
; Line 134
	push	0
	push	0
	push	ebp
	mov	edi, eax
	push	edi
	push	-1
	push	esi
	push	0
	push	0
	call	DWORD PTR __imp__WideCharToMultiByte@32
	mov	ecx, DWORD PTR _csut_TFX_LastProbe
; Line 122
	mov	ebp, DWORD PTR _pBuffer$[esp+28]
	mov	DWORD PTR [ecx], 19			; 00000013H
	mov	edx, DWORD PTR _csut_TFX_CoverageBuffer
	mov	BYTE PTR [edx+19], bl
	jmp	SHORT $LN1@PopFileRea
$LN7@PopFileRea:
; Line 123
	mov	eax, DWORD PTR _csut_TFX_LastProbe
	mov	DWORD PTR [eax], 22			; 00000016H
	mov	ecx, DWORD PTR _csut_TFX_CoverageBuffer
; Line 128
	lea	edx, DWORD PTR [edi+edi+2]
	push	edx
	mov	BYTE PTR [ecx+22], bl
	call	_malloc
	add	esp, 4
	mov	edi, eax
; Line 138
	push	ebp
	push	edi
	call	DWORD PTR __imp__lstrcpyA@8
	mov	eax, DWORD PTR _csut_TFX_LastProbe
	mov	DWORD PTR [eax], 20			; 00000014H
	mov	ecx, DWORD PTR _csut_TFX_CoverageBuffer
	mov	BYTE PTR [ecx+20], bl
$LN1@PopFileRea:
; Line 142
	mov	edx, DWORD PTR _hwndEdit$[esp+24]
	push	edi
	push	edx
	call	DWORD PTR __imp__SetWindowTextA@8
; Line 143
	push	ebp
	call	_free
; Line 144
	push	edi
	call	_free
; Line 146
	mov	eax, DWORD PTR _csut_TFX_LastProbe
	add	esp, 8
	pop	edi
	mov	DWORD PTR [eax], 24			; 00000018H
	mov	ecx, DWORD PTR _csut_TFX_CoverageBuffer
	pop	ebp
	pop	esi
	mov	BYTE PTR [ecx+24], bl
	mov	eax, 1
	pop	ebx
; Line 147
	add	esp, 12					; 0000000cH
	ret	0
_PopFileRead ENDP
_TEXT	ENDS
PUBLIC	_PopFileWrite
EXTRN	__imp__WriteFile@20:PROC
EXTRN	__imp__GetWindowTextA@12:PROC
EXTRN	__imp__GetWindowTextLengthA@4:PROC
; Function compile flags: /Ogtpy
;	COMDAT _PopFileWrite
_TEXT	SEGMENT
_hFile$ = -8						; size = 4
_dwBytesWritten$ = -4					; size = 4
_hwndEdit$ = 8						; size = 4
_pstrFileName$ = 12					; size = 4
_PopFileWrite PROC					; COMDAT
; Line 156
	sub	esp, 8
	mov	eax, DWORD PTR _csut_TFX_LastProbe
	push	ebx
; Line 167
	push	0
	push	0
	mov	DWORD PTR [eax], 25			; 00000019H
	mov	ecx, DWORD PTR _csut_TFX_CoverageBuffer
	push	2
	push	0
	mov	bl, 49					; 00000031H
	mov	BYTE PTR [ecx+25], bl
	mov	edx, DWORD PTR _csut_TFX_LastProbe
	mov	ecx, DWORD PTR _pstrFileName$[esp+24]
	push	0
	mov	DWORD PTR [edx], 26			; 0000001aH
	mov	eax, DWORD PTR _csut_TFX_CoverageBuffer
	push	1073741824				; 40000000H
	push	ecx
	mov	BYTE PTR [eax+26], bl
	call	DWORD PTR __imp__CreateFileA@28
	mov	DWORD PTR _hFile$[esp+12], eax
	cmp	eax, -1
	jne	SHORT $LN6@PopFileWri
; Line 168
	mov	edx, DWORD PTR _csut_TFX_LastProbe
	mov	DWORD PTR [edx], 27			; 0000001bH
	mov	eax, DWORD PTR _csut_TFX_CoverageBuffer
	mov	BYTE PTR [eax+27], bl
	mov	ecx, DWORD PTR _csut_TFX_LastProbe
	mov	DWORD PTR [ecx], 35			; 00000023H
	mov	edx, DWORD PTR _csut_TFX_CoverageBuffer
	mov	BYTE PTR [edx+35], bl
	xor	eax, eax
	pop	ebx
; Line 206
	add	esp, 8
	ret	0
$LN6@PopFileWri:
; Line 168
	mov	eax, DWORD PTR _csut_TFX_LastProbe
; Line 173
	mov	edx, DWORD PTR _hwndEdit$[esp+8]
	push	ebp
	push	esi
	mov	DWORD PTR [eax], 28			; 0000001cH
	mov	ecx, DWORD PTR _csut_TFX_CoverageBuffer
	push	edi
	push	edx
	mov	BYTE PTR [ecx+28], bl
	call	DWORD PTR __imp__GetWindowTextLengthA@4
	mov	edi, eax
; Line 174
	lea	ebp, DWORD PTR [edi+1]
	push	ebp
	call	_malloc
	mov	esi, eax
	mov	eax, DWORD PTR _csut_TFX_LastProbe
	mov	DWORD PTR [eax], 29			; 0000001dH
	mov	ecx, DWORD PTR _csut_TFX_CoverageBuffer
	add	esp, 4
	mov	BYTE PTR [ecx+29], bl
; Line 176
	test	esi, esi
	jne	SHORT $LN4@PopFileWri
; Line 177
	mov	edx, DWORD PTR _csut_TFX_LastProbe
; Line 178
	mov	ecx, DWORD PTR _hFile$[esp+24]
	mov	DWORD PTR [edx], 30			; 0000001eH
	mov	eax, DWORD PTR _csut_TFX_CoverageBuffer
	push	ecx
	mov	BYTE PTR [eax+30], bl
	call	DWORD PTR __imp__CloseHandle@4
; Line 179
	mov	edx, DWORD PTR _csut_TFX_LastProbe
	pop	edi
	mov	DWORD PTR [edx], 36			; 00000024H
	mov	eax, DWORD PTR _csut_TFX_CoverageBuffer
	pop	esi
	mov	BYTE PTR [eax+36], bl
	pop	ebp
	xor	eax, eax
	pop	ebx
; Line 206
	add	esp, 8
	ret	0
$LN4@PopFileWri:
; Line 180
	mov	ecx, DWORD PTR _csut_TFX_LastProbe
; Line 191
	mov	eax, DWORD PTR _hwndEdit$[esp+20]
	push	ebp
	mov	DWORD PTR [ecx], 31			; 0000001fH
	mov	edx, DWORD PTR _csut_TFX_CoverageBuffer
	push	esi
	push	eax
	mov	BYTE PTR [edx+31], bl
	call	DWORD PTR __imp__GetWindowTextA@12
; Line 193
	mov	ebp, DWORD PTR _hFile$[esp+24]
	push	0
	lea	ecx, DWORD PTR _dwBytesWritten$[esp+28]
	push	ecx
	push	edi
	push	esi
	push	ebp
	call	DWORD PTR __imp__WriteFile@20
	mov	edx, DWORD PTR _csut_TFX_LastProbe
	mov	DWORD PTR [edx], 32			; 00000020H
	mov	eax, DWORD PTR _csut_TFX_CoverageBuffer
	mov	BYTE PTR [eax+32], bl
; Line 197
	push	ebp
	cmp	edi, DWORD PTR _dwBytesWritten$[esp+28]
	je	SHORT $LN2@PopFileWri
	mov	ecx, DWORD PTR _csut_TFX_LastProbe
	mov	DWORD PTR [ecx], 33			; 00000021H
	mov	edx, DWORD PTR _csut_TFX_CoverageBuffer
	mov	BYTE PTR [edx+33], bl
	call	DWORD PTR __imp__CloseHandle@4
; Line 198
	push	esi
	call	_free
; Line 199
	mov	eax, DWORD PTR _csut_TFX_LastProbe
	add	esp, 4
	pop	edi
	mov	DWORD PTR [eax], 37			; 00000025H
	mov	ecx, DWORD PTR _csut_TFX_CoverageBuffer
	pop	esi
	pop	ebp
	mov	BYTE PTR [ecx+37], bl
	xor	eax, eax
	pop	ebx
; Line 206
	add	esp, 8
	ret	0
$LN2@PopFileWri:
; Line 200
	mov	edx, DWORD PTR _csut_TFX_LastProbe
	mov	DWORD PTR [edx], 34			; 00000022H
	mov	eax, DWORD PTR _csut_TFX_CoverageBuffer
	mov	BYTE PTR [eax+34], bl
; Line 202
	call	DWORD PTR __imp__CloseHandle@4
; Line 203
	push	esi
	call	_free
; Line 205
	mov	ecx, DWORD PTR _csut_TFX_LastProbe
	add	esp, 4
	pop	edi
	mov	DWORD PTR [ecx], 38			; 00000026H
	mov	edx, DWORD PTR _csut_TFX_CoverageBuffer
	pop	esi
	pop	ebp
	mov	BYTE PTR [edx+38], bl
	mov	eax, 1
	pop	ebx
; Line 206
	add	esp, 8
	ret	0
_PopFileWrite ENDP
; Function compile flags: /Ogtpy
_TEXT	ENDS
;	COMDAT _PopFileInitialize_csut0
_TEXT	SEGMENT
_hwnd$ = -4						; size = 4
_csutp$ = 8						; size = 4
_PopFileInitialize_csut0 PROC				; COMDAT
; File f:\20120709_enterprise_ct_v2.0_workspace\vc2008_poppad3_c\unittest\popfileinitialize_csut0.c
; Line 16
	push	ecx
; Line 19
	mov	eax, DWORD PTR _hwnd$[esp+4]
; Line 20
	add	esp, 4
; Line 19
	mov	DWORD PTR _csutp$[esp-4], eax
	jmp	_PopFileInitialize
_PopFileInitialize_csut0 ENDP
_TEXT	ENDS
PUBLIC	??_C@_0BE@DBCPANJJ@PopFileOpenDlg_ret0?$AA@	; `string'
EXTRN	_csut_TFX_writeIntOutput:PROC
;	COMDAT ??_C@_0BE@DBCPANJJ@PopFileOpenDlg_ret0?$AA@
; File f:\20120709_enterprise_ct_v2.0_workspace\vc2008_poppad3_c\unittest\popfileopendlg_csut0.c
CONST	SEGMENT
??_C@_0BE@DBCPANJJ@PopFileOpenDlg_ret0?$AA@ DB 'PopFileOpenDlg_ret0', 00H ; `string'
; Function compile flags: /Ogtpy
CONST	ENDS
;	COMDAT _PopFileOpenDlg_csut0
_TEXT	SEGMENT
_mem4$ = -1						; size = 1
_hwnd$ = 8						; size = 4
_mem5$ = 8						; size = 1
_csutp$ = 8						; size = 4
_PopFileOpenDlg_csut0 PROC				; COMDAT
; Line 17
	push	ecx
; Line 28
	mov	eax, DWORD PTR _csutp$[esp]
	mov	cl, BYTE PTR [eax]
; Line 29
	mov	dl, BYTE PTR [eax+1]
; Line 31
	lea	eax, DWORD PTR _mem5$[esp]
	mov	BYTE PTR _mem4$[esp+4], cl
	push	eax
	lea	ecx, DWORD PTR _mem4$[esp+8]
	mov	BYTE PTR _mem5$[esp+4], dl
	mov	edx, DWORD PTR _hwnd$[esp+4]
	push	ecx
	push	edx
	call	_PopFileOpenDlg
; Line 32
	push	0
	push	0
	cdq
	push	4
	push	edx
	push	eax
	push	OFFSET ??_C@_0BE@DBCPANJJ@PopFileOpenDlg_ret0?$AA@
	call	_csut_TFX_writeIntOutput
; Line 34
	add	esp, 40					; 00000028H
	ret	0
_PopFileOpenDlg_csut0 ENDP
_TEXT	ENDS
PUBLIC	??_C@_0BB@MHBHBHFG@PopFileRead_ret0?$AA@	; `string'
;	COMDAT ??_C@_0BB@MHBHBHFG@PopFileRead_ret0?$AA@
; File f:\20120709_enterprise_ct_v2.0_workspace\vc2008_poppad3_c\unittest\popfileread_csut0.c
CONST	SEGMENT
??_C@_0BB@MHBHBHFG@PopFileRead_ret0?$AA@ DB 'PopFileRead_ret0', 00H ; `string'
; Function compile flags: /Ogtpy
CONST	ENDS
;	COMDAT _PopFileRead_csut0
_TEXT	SEGMENT
_hwndEdit$ = 8						; size = 4
_mem6$ = 8						; size = 1
_csutp$ = 8						; size = 4
_PopFileRead_csut0 PROC					; COMDAT
; Line 24
	mov	eax, DWORD PTR _csutp$[esp-4]
	mov	cl, BYTE PTR [eax]
; Line 26
	lea	edx, DWORD PTR _mem6$[esp-4]
	mov	BYTE PTR _mem6$[esp-4], cl
	mov	eax, DWORD PTR _hwndEdit$[esp-4]
	push	edx
	push	eax
	call	_PopFileRead
; Line 27
	push	0
	push	0
	cdq
	push	4
	push	edx
	push	eax
	push	OFFSET ??_C@_0BB@MHBHBHFG@PopFileRead_ret0?$AA@
	call	_csut_TFX_writeIntOutput
	add	esp, 32					; 00000020H
; Line 29
	ret	0
_PopFileRead_csut0 ENDP
_TEXT	ENDS
PUBLIC	??_C@_0BE@EHNLOKBG@PopFileSaveDlg_ret0?$AA@	; `string'
;	COMDAT ??_C@_0BE@EHNLOKBG@PopFileSaveDlg_ret0?$AA@
; File f:\20120709_enterprise_ct_v2.0_workspace\vc2008_poppad3_c\unittest\popfilesavedlg_csut0.c
CONST	SEGMENT
??_C@_0BE@EHNLOKBG@PopFileSaveDlg_ret0?$AA@ DB 'PopFileSaveDlg_ret0', 00H ; `string'
; Function compile flags: /Ogtpy
CONST	ENDS
;	COMDAT _PopFileSaveDlg_csut0
_TEXT	SEGMENT
_mem7$ = -1						; size = 1
_hwnd$ = 8						; size = 4
_mem8$ = 8						; size = 1
_csutp$ = 8						; size = 4
_PopFileSaveDlg_csut0 PROC				; COMDAT
; Line 17
	push	ecx
; Line 28
	mov	eax, DWORD PTR _csutp$[esp]
	mov	cl, BYTE PTR [eax]
; Line 29
	mov	dl, BYTE PTR [eax+1]
; Line 31
	lea	eax, DWORD PTR _mem8$[esp]
	mov	BYTE PTR _mem7$[esp+4], cl
	push	eax
	lea	ecx, DWORD PTR _mem7$[esp+8]
	mov	BYTE PTR _mem8$[esp+4], dl
	mov	edx, DWORD PTR _hwnd$[esp+4]
	push	ecx
	push	edx
	call	_PopFileSaveDlg
; Line 32
	push	0
	push	0
	cdq
	push	4
	push	edx
	push	eax
	push	OFFSET ??_C@_0BE@EHNLOKBG@PopFileSaveDlg_ret0?$AA@
	call	_csut_TFX_writeIntOutput
; Line 34
	add	esp, 40					; 00000028H
	ret	0
_PopFileSaveDlg_csut0 ENDP
_TEXT	ENDS
PUBLIC	??_C@_0BC@NEBIMCEF@PopFileWrite_ret0?$AA@	; `string'
;	COMDAT ??_C@_0BC@NEBIMCEF@PopFileWrite_ret0?$AA@
; File f:\20120709_enterprise_ct_v2.0_workspace\vc2008_poppad3_c\unittest\popfilewrite_csut0.c
CONST	SEGMENT
??_C@_0BC@NEBIMCEF@PopFileWrite_ret0?$AA@ DB 'PopFileWrite_ret0', 00H ; `string'
; Function compile flags: /Ogtpy
CONST	ENDS
;	COMDAT _PopFileWrite_csut0
_TEXT	SEGMENT
_hwndEdit$ = 8						; size = 4
_mem9$ = 8						; size = 1
_csutp$ = 8						; size = 4
_PopFileWrite_csut0 PROC				; COMDAT
; Line 24
	mov	eax, DWORD PTR _csutp$[esp-4]
	mov	cl, BYTE PTR [eax]
; Line 26
	lea	edx, DWORD PTR _mem9$[esp-4]
	mov	BYTE PTR _mem9$[esp-4], cl
	mov	eax, DWORD PTR _hwndEdit$[esp-4]
	push	edx
	push	eax
	call	_PopFileWrite
; Line 27
	push	0
	push	0
	cdq
	push	4
	push	edx
	push	eax
	push	OFFSET ??_C@_0BC@NEBIMCEF@PopFileWrite_ret0?$AA@
	call	_csut_TFX_writeIntOutput
	add	esp, 32					; 00000020H
; Line 29
	ret	0
_PopFileWrite_csut0 ENDP
_TEXT	ENDS
END
