; Listing generated by Microsoft (R) Optimizing Compiler Version 15.00.30729.01 

	TITLE	F:\20120709_Enterprise_CT_V2.0_workspace\VC2008_PopPad3_c\.csdata\src\build\PopFont_8.c
	.686P
	.XMM
	include listing.inc
	.model	flat

INCLUDELIB LIBCMT
INCLUDELIB OLDNAMES

PUBLIC	??_C@_0BN@PPEMMENK@struct?5PopFontSetFont_csut0p?$AA@ ; `string'
PUBLIC	??_C@_0BF@EGFOIEFH@PopFontSetFont_csut0?$AA@	; `string'
PUBLIC	_PopFontSetFont_csut0
PUBLIC	??_C@_0CA@CHPANLCE@struct?5PopFontInitialize_csut0p?$AA@ ; `string'
PUBLIC	??_C@_0BI@JELBJCGO@PopFontInitialize_csut0?$AA@	; `string'
PUBLIC	_PopFontInitialize_csut0
PUBLIC	??_C@_0CC@OANBNDPD@struct?5PopFontDeinitialize_csut0@ ; `string'
PUBLIC	??_C@_0BK@NJJFMAJM@PopFontDeinitialize_csut0?$AA@ ; `string'
PUBLIC	_PopFontDeinitialize_csut0
PUBLIC	??_C@_0CA@KADHPLON@struct?5PopFontChooseFont_csut0p?$AA@ ; `string'
PUBLIC	??_C@_0BI@FLDCIJPP@PopFontChooseFont_csut0?$AA@	; `string'
PUBLIC	_PopFontChooseFont_csut0
PUBLIC	__TFX_testFunctionsFor_4503599627370496
PUBLIC	__TFX_testFunctionsFor_4785074604081152
PUBLIC	__TFX_testFunctionsFor_5066549580791808
PUBLIC	__TFX_testFunctionsFor_5348024557502464
;	COMDAT ??_C@_0BN@PPEMMENK@struct?5PopFontSetFont_csut0p?$AA@
CONST	SEGMENT
??_C@_0BN@PPEMMENK@struct?5PopFontSetFont_csut0p?$AA@ DB 'struct PopFontS'
	DB	'etFont_csut0p', 00H				; `string'
CONST	ENDS
;	COMDAT ??_C@_0BF@EGFOIEFH@PopFontSetFont_csut0?$AA@
CONST	SEGMENT
??_C@_0BF@EGFOIEFH@PopFontSetFont_csut0?$AA@ DB 'PopFontSetFont_csut0', 00H ; `string'
CONST	ENDS
;	COMDAT ??_C@_0CA@CHPANLCE@struct?5PopFontInitialize_csut0p?$AA@
CONST	SEGMENT
??_C@_0CA@CHPANLCE@struct?5PopFontInitialize_csut0p?$AA@ DB 'struct PopFo'
	DB	'ntInitialize_csut0p', 00H			; `string'
CONST	ENDS
;	COMDAT ??_C@_0BI@JELBJCGO@PopFontInitialize_csut0?$AA@
CONST	SEGMENT
??_C@_0BI@JELBJCGO@PopFontInitialize_csut0?$AA@ DB 'PopFontInitialize_csu'
	DB	't0', 00H					; `string'
CONST	ENDS
;	COMDAT ??_C@_0CC@OANBNDPD@struct?5PopFontDeinitialize_csut0@
CONST	SEGMENT
??_C@_0CC@OANBNDPD@struct?5PopFontDeinitialize_csut0@ DB 'struct PopFontD'
	DB	'einitialize_csut0p', 00H			; `string'
CONST	ENDS
;	COMDAT ??_C@_0BK@NJJFMAJM@PopFontDeinitialize_csut0?$AA@
CONST	SEGMENT
??_C@_0BK@NJJFMAJM@PopFontDeinitialize_csut0?$AA@ DB 'PopFontDeinitialize'
	DB	'_csut0', 00H				; `string'
CONST	ENDS
_DATA	SEGMENT
__TFX_testFunctionsFor_4503599627370496 DD 04H
	DD	FLAT:_PopFontChooseFont_csut0
	DD	FLAT:??_C@_0BI@FLDCIJPP@PopFontChooseFont_csut0?$AA@
	DD	FLAT:??_C@_0CA@KADHPLON@struct?5PopFontChooseFont_csut0p?$AA@
	DD	08H
	DD	00H
	DD	00H
	DD	00H
	DD	05H
	DD	00H
	DD	00H
	DD	00H
	DD	00H
	DD	00H
	DD	00H
	DD	00H
__TFX_testFunctionsFor_4785074604081152 DD 04H
	DD	FLAT:_PopFontDeinitialize_csut0
	DD	FLAT:??_C@_0BK@NJJFMAJM@PopFontDeinitialize_csut0?$AA@
	DD	FLAT:??_C@_0CC@OANBNDPD@struct?5PopFontDeinitialize_csut0@
	DD	08H
	DD	00H
	DD	00H
	DD	00H
	DD	05H
	DD	00H
	DD	00H
	DD	00H
	DD	00H
	DD	00H
	DD	00H
	DD	00H
__TFX_testFunctionsFor_5066549580791808 DD 04H
	DD	FLAT:_PopFontInitialize_csut0
	DD	FLAT:??_C@_0BI@JELBJCGO@PopFontInitialize_csut0?$AA@
	DD	FLAT:??_C@_0CA@CHPANLCE@struct?5PopFontInitialize_csut0p?$AA@
	DD	08H
	DD	00H
	DD	00H
	DD	00H
	DD	05H
	DD	00H
	DD	00H
	DD	00H
	DD	00H
	DD	00H
	DD	00H
	DD	00H
__TFX_testFunctionsFor_5348024557502464 DD 04H
	DD	FLAT:_PopFontSetFont_csut0
	DD	FLAT:??_C@_0BF@EGFOIEFH@PopFontSetFont_csut0?$AA@
	DD	FLAT:??_C@_0BN@PPEMMENK@struct?5PopFontSetFont_csut0p?$AA@
	DD	08H
	DD	00H
	DD	00H
	DD	00H
	DD	05H
	DD	00H
	DD	00H
	DD	00H
	DD	00H
	DD	00H
	DD	00H
	DD	00H
_DATA	ENDS
;	COMDAT ??_C@_0CA@KADHPLON@struct?5PopFontChooseFont_csut0p?$AA@
CONST	SEGMENT
??_C@_0CA@KADHPLON@struct?5PopFontChooseFont_csut0p?$AA@ DB 'struct PopFo'
	DB	'ntChooseFont_csut0p', 00H			; `string'
CONST	ENDS
;	COMDAT ??_C@_0BI@FLDCIJPP@PopFontChooseFont_csut0?$AA@
CONST	SEGMENT
??_C@_0BI@FLDCIJPP@PopFontChooseFont_csut0?$AA@ DB 'PopFontChooseFont_csu'
	DB	't0', 00H					; `string'
CONST	ENDS
PUBLIC	_PopFontChooseFont
EXTRN	__imp__ChooseFontA@4:PROC
EXTRN	_csut_TFX_CoverageBuffer:DWORD
EXTRN	_csut_TFX_LastProbe:DWORD
_BSS	SEGMENT
_logfont DB	03cH DUP (?)
; Function compile flags: /Ogtpy
_BSS	ENDS
;	COMDAT _PopFontChooseFont
_TEXT	SEGMENT
_cf$ = -60						; size = 60
_hwnd$ = 8						; size = 4
_PopFontChooseFont PROC					; COMDAT
; File d:\open source\vs2008\c\poppad3\popfont.c
; Line 14
	sub	esp, 60					; 0000003cH
	mov	eax, DWORD PTR _csut_TFX_LastProbe
; Line 18
	mov	edx, DWORD PTR _hwnd$[esp+56]
	mov	DWORD PTR [eax], 62			; 0000003eH
	mov	ecx, DWORD PTR _csut_TFX_CoverageBuffer
	mov	BYTE PTR [ecx+62], 49			; 00000031H
; Line 19
	xor	eax, eax
	mov	DWORD PTR _cf$[esp+64], edx
; Line 33
	lea	edx, DWORD PTR _cf$[esp+60]
	xor	ecx, ecx
	push	edx
	mov	DWORD PTR _cf$[esp+64], 60		; 0000003cH
	mov	DWORD PTR _cf$[esp+72], eax
	mov	DWORD PTR _cf$[esp+76], OFFSET _logfont
	mov	DWORD PTR _cf$[esp+80], eax
	mov	DWORD PTR _cf$[esp+84], 321		; 00000141H
	mov	DWORD PTR _cf$[esp+88], eax
	mov	DWORD PTR _cf$[esp+92], eax
	mov	DWORD PTR _cf$[esp+96], eax
	mov	DWORD PTR _cf$[esp+100], eax
	mov	DWORD PTR _cf$[esp+104], eax
	mov	DWORD PTR _cf$[esp+108], eax
	mov	WORD PTR _cf$[esp+112], cx
	mov	DWORD PTR _cf$[esp+116], eax
	mov	DWORD PTR _cf$[esp+120], eax
	call	DWORD PTR __imp__ChooseFontA@4
	mov	ecx, DWORD PTR _csut_TFX_LastProbe
	mov	DWORD PTR [ecx], 63			; 0000003fH
	mov	edx, DWORD PTR _csut_TFX_CoverageBuffer
	mov	BYTE PTR [edx+63], 49			; 00000031H
; Line 34
	add	esp, 60					; 0000003cH
	ret	0
_PopFontChooseFont ENDP
_TEXT	ENDS
PUBLIC	_PopFontInitialize
EXTRN	__imp__SendMessageA@16:PROC
EXTRN	__imp__CreateFontIndirectA@4:PROC
EXTRN	__imp__GetObjectA@12:PROC
EXTRN	__imp__GetStockObject@4:PROC
_BSS	SEGMENT
_hFont	DD	01H DUP (?)
; Function compile flags: /Ogtpy
_BSS	ENDS
;	COMDAT _PopFontInitialize
_TEXT	SEGMENT
_hwndEdit$ = 8						; size = 4
_PopFontInitialize PROC					; COMDAT
; Line 43
	mov	eax, DWORD PTR _csut_TFX_LastProbe
; Line 45
	push	OFFSET _logfont
	mov	DWORD PTR [eax], 64			; 00000040H
	mov	ecx, DWORD PTR _csut_TFX_CoverageBuffer
	push	60					; 0000003cH
	push	13					; 0000000dH
	mov	BYTE PTR [ecx+64], 49			; 00000031H
	call	DWORD PTR __imp__GetStockObject@4
	push	eax
	call	DWORD PTR __imp__GetObjectA@12
; Line 47
	push	OFFSET _logfont
	call	DWORD PTR __imp__CreateFontIndirectA@4
; Line 48
	mov	edx, DWORD PTR _hwndEdit$[esp-4]
	push	0
	push	eax
	push	48					; 00000030H
	push	edx
	mov	DWORD PTR _hFont, eax
	call	DWORD PTR __imp__SendMessageA@16
	mov	eax, DWORD PTR _csut_TFX_LastProbe
	mov	DWORD PTR [eax], 65			; 00000041H
	mov	ecx, DWORD PTR _csut_TFX_CoverageBuffer
	mov	BYTE PTR [ecx+65], 49			; 00000031H
; Line 49
	ret	0
_PopFontInitialize ENDP
_TEXT	ENDS
PUBLIC	_PopFontSetFont
EXTRN	__imp__InvalidateRect@12:PROC
EXTRN	__imp__GetClientRect@8:PROC
EXTRN	__imp__DeleteObject@4:PROC
; Function compile flags: /Ogtpy
;	COMDAT _PopFontSetFont
_TEXT	SEGMENT
_rect$ = -16						; size = 16
_hwndEdit$ = 8						; size = 4
_PopFontSetFont PROC					; COMDAT
; Line 58
	mov	eax, DWORD PTR _csut_TFX_LastProbe
	sub	esp, 16					; 00000010H
	push	esi
	mov	DWORD PTR [eax], 66			; 00000042H
	mov	ecx, DWORD PTR _csut_TFX_CoverageBuffer
	push	edi
; Line 62
	push	OFFSET _logfont
	mov	BYTE PTR [ecx+66], 49			; 00000031H
	call	DWORD PTR __imp__CreateFontIndirectA@4
; Line 63
	mov	edi, DWORD PTR _hwndEdit$[esp+20]
	push	0
	mov	esi, eax
	push	esi
	push	48					; 00000030H
	push	edi
	call	DWORD PTR __imp__SendMessageA@16
; Line 64
	mov	edx, DWORD PTR _hFont
	push	edx
	call	DWORD PTR __imp__DeleteObject@4
; Line 66
	lea	eax, DWORD PTR _rect$[esp+24]
	push	eax
	push	edi
	mov	DWORD PTR _hFont, esi
	call	DWORD PTR __imp__GetClientRect@8
; Line 67
	push	1
	lea	ecx, DWORD PTR _rect$[esp+28]
	push	ecx
	push	edi
	call	DWORD PTR __imp__InvalidateRect@12
	mov	edx, DWORD PTR _csut_TFX_LastProbe
	mov	DWORD PTR [edx], 67			; 00000043H
	mov	eax, DWORD PTR _csut_TFX_CoverageBuffer
	pop	edi
	mov	BYTE PTR [eax+67], 49			; 00000031H
	pop	esi
; Line 68
	add	esp, 16					; 00000010H
	ret	0
_PopFontSetFont ENDP
_TEXT	ENDS
PUBLIC	_PopFontDeinitialize
; Function compile flags: /Ogtpy
;	COMDAT _PopFontDeinitialize
_TEXT	SEGMENT
_PopFontDeinitialize PROC				; COMDAT
; Line 77
	mov	eax, DWORD PTR _csut_TFX_LastProbe
; Line 78
	mov	edx, DWORD PTR _hFont
	mov	DWORD PTR [eax], 68			; 00000044H
	mov	ecx, DWORD PTR _csut_TFX_CoverageBuffer
	push	edx
	mov	BYTE PTR [ecx+68], 49			; 00000031H
	call	DWORD PTR __imp__DeleteObject@4
	mov	eax, DWORD PTR _csut_TFX_LastProbe
	mov	DWORD PTR [eax], 69			; 00000045H
	mov	ecx, DWORD PTR _csut_TFX_CoverageBuffer
	mov	BYTE PTR [ecx+69], 49			; 00000031H
; Line 79
	ret	0
_PopFontDeinitialize ENDP
_TEXT	ENDS
PUBLIC	??_C@_0BH@HHNLIEFE@PopFontChooseFont_ret0?$AA@	; `string'
EXTRN	_csut_TFX_writeIntOutput:PROC
;	COMDAT ??_C@_0BH@HHNLIEFE@PopFontChooseFont_ret0?$AA@
; File f:\20120709_enterprise_ct_v2.0_workspace\vc2008_poppad3_c\unittest\popfontchoosefont_csut0.c
CONST	SEGMENT
??_C@_0BH@HHNLIEFE@PopFontChooseFont_ret0?$AA@ DB 'PopFontChooseFont_ret0'
	DB	00H						; `string'
; Function compile flags: /Ogtpy
CONST	ENDS
;	COMDAT _PopFontChooseFont_csut0
_TEXT	SEGMENT
_hwnd$ = -4						; size = 4
_csutp$ = 8						; size = 4
_PopFontChooseFont_csut0 PROC				; COMDAT
; Line 16
	push	ecx
; Line 20
	mov	eax, DWORD PTR _hwnd$[esp+4]
	push	eax
	call	_PopFontChooseFont
; Line 21
	push	0
	push	0
	cdq
	push	4
	push	edx
	push	eax
	push	OFFSET ??_C@_0BH@HHNLIEFE@PopFontChooseFont_ret0?$AA@
	call	_csut_TFX_writeIntOutput
; Line 23
	add	esp, 32					; 00000020H
	ret	0
_PopFontChooseFont_csut0 ENDP
; Function compile flags: /Ogtpy
_TEXT	ENDS
;	COMDAT _PopFontDeinitialize_csut0
_TEXT	SEGMENT
_csutp$ = 8						; size = 4
_PopFontDeinitialize_csut0 PROC				; COMDAT
; File f:\20120709_enterprise_ct_v2.0_workspace\vc2008_poppad3_c\unittest\popfontdeinitialize_csut0.c
; Line 17
	jmp	_PopFontDeinitialize
_PopFontDeinitialize_csut0 ENDP
; Function compile flags: /Ogtpy
_TEXT	ENDS
;	COMDAT _PopFontInitialize_csut0
_TEXT	SEGMENT
_hwndEdit$ = -4						; size = 4
_csutp$ = 8						; size = 4
_PopFontInitialize_csut0 PROC				; COMDAT
; File f:\20120709_enterprise_ct_v2.0_workspace\vc2008_poppad3_c\unittest\popfontinitialize_csut0.c
; Line 16
	push	ecx
; Line 19
	mov	eax, DWORD PTR _hwndEdit$[esp+4]
; Line 20
	add	esp, 4
; Line 19
	mov	DWORD PTR _csutp$[esp-4], eax
	jmp	_PopFontInitialize
_PopFontInitialize_csut0 ENDP
; Function compile flags: /Ogtpy
_TEXT	ENDS
;	COMDAT _PopFontSetFont_csut0
_TEXT	SEGMENT
_hwndEdit$ = -4						; size = 4
_csutp$ = 8						; size = 4
_PopFontSetFont_csut0 PROC				; COMDAT
; File f:\20120709_enterprise_ct_v2.0_workspace\vc2008_poppad3_c\unittest\popfontsetfont_csut0.c
; Line 16
	push	ecx
; Line 19
	mov	eax, DWORD PTR _hwndEdit$[esp+4]
; Line 20
	add	esp, 4
; Line 19
	mov	DWORD PTR _csutp$[esp-4], eax
	jmp	_PopFontSetFont
_PopFontSetFont_csut0 ENDP
_TEXT	ENDS
END
