; Listing generated by Microsoft (R) Optimizing Compiler Version 15.00.30729.01 

	TITLE	F:\20120709_Enterprise_CT_V2.0_workspace\VC2008_PopPad3_c\.csdata\src\build\PopPad_9.c
	.686P
	.XMM
	include listing.inc
	.model	flat

INCLUDELIB LIBCMT
INCLUDELIB OLDNAMES

PUBLIC	??_C@_0BG@NHEMDOCL@struct?5WndProc_csut0p?$AA@	; `string'
PUBLIC	??_C@_0O@NBKPNPDE@WndProc_csut0?$AA@		; `string'
PUBLIC	_WndProc_csut0
PUBLIC	??_C@_0BG@NBCMCLAF@struct?5WinMain_csut0p?$AA@	; `string'
PUBLIC	??_C@_0O@HAPOOHB@WinMain_csut0?$AA@		; `string'
PUBLIC	_WinMain_csut0
PUBLIC	??_C@_0BI@MKOKHGHB@struct?5OkMessage_csut0p?$AA@ ; `string'
PUBLIC	??_C@_0BA@FFGNLKPO@OkMessage_csut0?$AA@		; `string'
PUBLIC	_OkMessage_csut0
PUBLIC	??_C@_0BI@LNJNADKP@struct?5DoCaption_csut0p?$AA@ ; `string'
PUBLIC	??_C@_0BA@CFCIPCPP@DoCaption_csut0?$AA@		; `string'
PUBLIC	_DoCaption_csut0
PUBLIC	??_C@_0BL@KFLHEJHM@struct?5AskAboutSave_csut0p?$AA@ ; `string'
PUBLIC	??_C@_0BD@JLPHJFIL@AskAboutSave_csut0?$AA@	; `string'
PUBLIC	_AskAboutSave_csut0
PUBLIC	??_C@_0BL@OKMAMMNA@struct?5AboutDlgProc_csut0p?$AA@ ; `string'
PUBLIC	??_C@_0BD@DDIAGLCI@AboutDlgProc_csut0?$AA@	; `string'
PUBLIC	_AboutDlgProc_csut0
PUBLIC	__TFX_testFunctionsFor_281474976710656
PUBLIC	__TFX_testFunctionsFor_562949953421312
PUBLIC	__TFX_testFunctionsFor_844424930131968
PUBLIC	__TFX_testFunctionsFor_1125899906842624
PUBLIC	__TFX_testFunctionsFor_5910974510923776
PUBLIC	__TFX_testFunctionsFor_6192449487634432
_BSS	SEGMENT
?bNeedSave@?1??WndProc@@9@9 DD 01H DUP (?)		; `WndProc'::`2'::bNeedSave
_BSS	ENDS
;	COMDAT ??_C@_0BG@NHEMDOCL@struct?5WndProc_csut0p?$AA@
CONST	SEGMENT
??_C@_0BG@NHEMDOCL@struct?5WndProc_csut0p?$AA@ DB 'struct WndProc_csut0p', 00H ; `string'
CONST	ENDS
;	COMDAT ??_C@_0O@NBKPNPDE@WndProc_csut0?$AA@
CONST	SEGMENT
??_C@_0O@NBKPNPDE@WndProc_csut0?$AA@ DB 'WndProc_csut0', 00H ; `string'
CONST	ENDS
;	COMDAT ??_C@_0BG@NBCMCLAF@struct?5WinMain_csut0p?$AA@
CONST	SEGMENT
??_C@_0BG@NBCMCLAF@struct?5WinMain_csut0p?$AA@ DB 'struct WinMain_csut0p', 00H ; `string'
CONST	ENDS
;	COMDAT ??_C@_0O@HAPOOHB@WinMain_csut0?$AA@
CONST	SEGMENT
??_C@_0O@HAPOOHB@WinMain_csut0?$AA@ DB 'WinMain_csut0', 00H ; `string'
CONST	ENDS
;	COMDAT ??_C@_0BI@MKOKHGHB@struct?5OkMessage_csut0p?$AA@
CONST	SEGMENT
??_C@_0BI@MKOKHGHB@struct?5OkMessage_csut0p?$AA@ DB 'struct OkMessage_csu'
	DB	't0p', 00H					; `string'
CONST	ENDS
;	COMDAT ??_C@_0BA@FFGNLKPO@OkMessage_csut0?$AA@
CONST	SEGMENT
??_C@_0BA@FFGNLKPO@OkMessage_csut0?$AA@ DB 'OkMessage_csut0', 00H ; `string'
CONST	ENDS
;	COMDAT ??_C@_0BI@LNJNADKP@struct?5DoCaption_csut0p?$AA@
CONST	SEGMENT
??_C@_0BI@LNJNADKP@struct?5DoCaption_csut0p?$AA@ DB 'struct DoCaption_csu'
	DB	't0p', 00H					; `string'
CONST	ENDS
;	COMDAT ??_C@_0BA@CFCIPCPP@DoCaption_csut0?$AA@
CONST	SEGMENT
??_C@_0BA@CFCIPCPP@DoCaption_csut0?$AA@ DB 'DoCaption_csut0', 00H ; `string'
CONST	ENDS
;	COMDAT ??_C@_0BL@KFLHEJHM@struct?5AskAboutSave_csut0p?$AA@
CONST	SEGMENT
??_C@_0BL@KFLHEJHM@struct?5AskAboutSave_csut0p?$AA@ DB 'struct AskAboutSa'
	DB	've_csut0p', 00H				; `string'
CONST	ENDS
;	COMDAT ??_C@_0BD@JLPHJFIL@AskAboutSave_csut0?$AA@
CONST	SEGMENT
??_C@_0BD@JLPHJFIL@AskAboutSave_csut0?$AA@ DB 'AskAboutSave_csut0', 00H ; `string'
CONST	ENDS
;	COMDAT ??_C@_0BL@OKMAMMNA@struct?5AboutDlgProc_csut0p?$AA@
CONST	SEGMENT
??_C@_0BL@OKMAMMNA@struct?5AboutDlgProc_csut0p?$AA@ DB 'struct AboutDlgPr'
	DB	'oc_csut0p', 00H				; `string'
CONST	ENDS
;	COMDAT ??_C@_0BD@DDIAGLCI@AboutDlgProc_csut0?$AA@
CONST	SEGMENT
??_C@_0BD@DDIAGLCI@AboutDlgProc_csut0?$AA@ DB 'AboutDlgProc_csut0', 00H ; `string'
CONST	ENDS
_DATA	SEGMENT
_szAppName DB	'PopPad', 00H
	ORG $+1
__TFX_testFunctionsFor_281474976710656 DD 04H
	DD	FLAT:_AboutDlgProc_csut0
	DD	FLAT:??_C@_0BD@DDIAGLCI@AboutDlgProc_csut0?$AA@
	DD	FLAT:??_C@_0BL@OKMAMMNA@struct?5AboutDlgProc_csut0p?$AA@
	DD	010H
	DD	00H
	DD	00H
	DD	00H
	DD	05H
	DD	00H
	DD	00H
	DD	00H
	DD	00H
	DD	00H
	DD	00H
	DD	00H
__TFX_testFunctionsFor_562949953421312 DD 04H
	DD	FLAT:_AskAboutSave_csut0
	DD	FLAT:??_C@_0BD@JLPHJFIL@AskAboutSave_csut0?$AA@
	DD	FLAT:??_C@_0BL@KFLHEJHM@struct?5AskAboutSave_csut0p?$AA@
	DD	04H
	DD	00H
	DD	00H
	DD	00H
	DD	05H
	DD	00H
	DD	00H
	DD	00H
	DD	00H
	DD	00H
	DD	00H
	DD	00H
__TFX_testFunctionsFor_844424930131968 DD 04H
	DD	FLAT:_DoCaption_csut0
	DD	FLAT:??_C@_0BA@CFCIPCPP@DoCaption_csut0?$AA@
	DD	FLAT:??_C@_0BI@LNJNADKP@struct?5DoCaption_csut0p?$AA@
	DD	08H
	DD	00H
	DD	00H
	DD	00H
	DD	05H
	DD	00H
	DD	00H
	DD	00H
	DD	00H
	DD	00H
	DD	00H
	DD	00H
__TFX_testFunctionsFor_1125899906842624 DD 04H
	DD	FLAT:_OkMessage_csut0
	DD	FLAT:??_C@_0BA@FFGNLKPO@OkMessage_csut0?$AA@
	DD	FLAT:??_C@_0BI@MKOKHGHB@struct?5OkMessage_csut0p?$AA@
	DD	08H
	DD	00H
	DD	00H
	DD	00H
	DD	05H
	DD	00H
	DD	00H
	DD	00H
	DD	00H
	DD	00H
	DD	00H
	DD	00H
__TFX_testFunctionsFor_5910974510923776 DD 04H
	DD	FLAT:_WinMain_csut0
	DD	FLAT:??_C@_0O@HAPOOHB@WinMain_csut0?$AA@
	DD	FLAT:??_C@_0BG@NBCMCLAF@struct?5WinMain_csut0p?$AA@
	DD	010H
	DD	00H
	DD	00H
	DD	00H
	DD	05H
	DD	00H
	DD	00H
	DD	00H
	DD	00H
	DD	00H
	DD	00H
	DD	00H
__TFX_testFunctionsFor_6192449487634432 DD 04H
	DD	FLAT:_WndProc_csut0
	DD	FLAT:??_C@_0O@NBKPNPDE@WndProc_csut0?$AA@
	DD	FLAT:??_C@_0BG@NHEMDOCL@struct?5WndProc_csut0p?$AA@
	DD	014H
	DD	00H
	DD	00H
	DD	00H
	DD	05H
	DD	00H
	DD	00H
	DD	00H
	DD	00H
	DD	00H
	DD	00H
	DD	00H
_DATA	ENDS
PUBLIC	??_C@_07FCJAGJJB@?$CFs?5?9?5?$CFs?$AA@		; `string'
PUBLIC	??_C@_0L@NBMDIMIK@?$CIuntitled?$CJ?$AA@		; `string'
PUBLIC	__$ArrayPad$
PUBLIC	_DoCaption
EXTRN	__imp__SetWindowTextA@8:PROC
EXTRN	__imp__wsprintfA:PROC
EXTRN	_csut_TFX_CoverageBuffer:DWORD
EXTRN	_csut_TFX_LastProbe:DWORD
EXTRN	___security_cookie:DWORD
EXTRN	@__security_check_cookie@4:PROC
;	COMDAT ??_C@_07FCJAGJJB@?$CFs?5?9?5?$CFs?$AA@
; File d:\open source\vs2008\c\poppad3\poppad.c
CONST	SEGMENT
??_C@_07FCJAGJJB@?$CFs?5?9?5?$CFs?$AA@ DB '%s - %s', 00H ; `string'
CONST	ENDS
;	COMDAT ??_C@_0L@NBMDIMIK@?$CIuntitled?$CJ?$AA@
CONST	SEGMENT
??_C@_0L@NBMDIMIK@?$CIuntitled?$CJ?$AA@ DB '(untitled)', 00H ; `string'
; Function compile flags: /Ogtpy
CONST	ENDS
;	COMDAT _DoCaption
_TEXT	SEGMENT
_szCaption$ = -328					; size = 324
__$ArrayPad$ = -4					; size = 4
_hwnd$ = 8						; size = 4
_szTitleName$ = 12					; size = 4
_DoCaption PROC						; COMDAT
; Line 107
	sub	esp, 328				; 00000148H
	mov	eax, DWORD PTR ___security_cookie
	xor	eax, esp
	mov	DWORD PTR __$ArrayPad$[esp+328], eax
	mov	ecx, DWORD PTR _csut_TFX_LastProbe
	mov	eax, DWORD PTR _szTitleName$[esp+324]
	mov	DWORD PTR [ecx], 84			; 00000054H
	mov	edx, DWORD PTR _csut_TFX_CoverageBuffer
	mov	BYTE PTR [edx+84], 49			; 00000031H
; Line 111
	cmp	BYTE PTR [eax], 0
	push	esi
	mov	esi, DWORD PTR _hwnd$[esp+328]
	jne	SHORT $LN4@DoCaption
	mov	eax, OFFSET ??_C@_0L@NBMDIMIK@?$CIuntitled?$CJ?$AA@
$LN4@DoCaption:
	push	eax
	push	OFFSET _szAppName
	lea	eax, DWORD PTR _szCaption$[esp+340]
	push	OFFSET ??_C@_07FCJAGJJB@?$CFs?5?9?5?$CFs?$AA@
	push	eax
	call	DWORD PTR __imp__wsprintfA
	add	esp, 16					; 00000010H
; Line 113
	lea	ecx, DWORD PTR _szCaption$[esp+332]
	push	ecx
	push	esi
	call	DWORD PTR __imp__SetWindowTextA@8
	mov	edx, DWORD PTR _csut_TFX_LastProbe
; Line 114
	mov	ecx, DWORD PTR __$ArrayPad$[esp+332]
	mov	DWORD PTR [edx], 85			; 00000055H
	mov	eax, DWORD PTR _csut_TFX_CoverageBuffer
	pop	esi
	xor	ecx, esp
	mov	BYTE PTR [eax+85], 49			; 00000031H
	call	@__security_check_cookie@4
	add	esp, 328				; 00000148H
	ret	0
_DoCaption ENDP
_TEXT	ENDS
PUBLIC	__$ArrayPad$
PUBLIC	_OkMessage
EXTRN	__imp__MessageBoxA@16:PROC
; Function compile flags: /Ogtpy
;	COMDAT _OkMessage
_TEXT	SEGMENT
_szBuffer$ = -328					; size = 324
__$ArrayPad$ = -4					; size = 4
_hwnd$ = 8						; size = 4
_szMessage$ = 12					; size = 4
_szTitleName$ = 16					; size = 4
_OkMessage PROC						; COMDAT
; Line 123
	sub	esp, 328				; 00000148H
	mov	eax, DWORD PTR ___security_cookie
	xor	eax, esp
	mov	DWORD PTR __$ArrayPad$[esp+328], eax
	mov	edx, DWORD PTR _csut_TFX_LastProbe
	mov	eax, DWORD PTR _szTitleName$[esp+324]
	mov	ecx, DWORD PTR _szMessage$[esp+324]
	mov	DWORD PTR [edx], 86			; 00000056H
	mov	edx, DWORD PTR _csut_TFX_CoverageBuffer
	mov	BYTE PTR [edx+86], 49			; 00000031H
; Line 126
	cmp	BYTE PTR [eax], 0
	push	esi
	mov	esi, DWORD PTR _hwnd$[esp+328]
	jne	SHORT $LN4@OkMessage
	mov	eax, OFFSET ??_C@_0L@NBMDIMIK@?$CIuntitled?$CJ?$AA@
$LN4@OkMessage:
	push	eax
	push	ecx
	lea	eax, DWORD PTR _szBuffer$[esp+340]
	push	eax
	call	DWORD PTR __imp__wsprintfA
	add	esp, 12					; 0000000cH
; Line 128
	push	48					; 00000030H
	push	OFFSET _szAppName
	lea	ecx, DWORD PTR _szBuffer$[esp+340]
	push	ecx
	push	esi
	call	DWORD PTR __imp__MessageBoxA@16
	mov	edx, DWORD PTR _csut_TFX_LastProbe
; Line 129
	mov	ecx, DWORD PTR __$ArrayPad$[esp+332]
	mov	DWORD PTR [edx], 87			; 00000057H
	mov	eax, DWORD PTR _csut_TFX_CoverageBuffer
	pop	esi
	xor	ecx, esp
	mov	BYTE PTR [eax+87], 49			; 00000031H
	call	@__security_check_cookie@4
	add	esp, 328				; 00000148H
	ret	0
_OkMessage ENDP
_TEXT	ENDS
PUBLIC	??_C@_0BM@EJPIEOIM@Save?5current?5changes?5in?5?$CFs?$DP?$AA@ ; `string'
PUBLIC	__$ArrayPad$
PUBLIC	_AskAboutSave
EXTRN	__imp__SendMessageA@16:PROC
;	COMDAT ??_C@_0BM@EJPIEOIM@Save?5current?5changes?5in?5?$CFs?$DP?$AA@
CONST	SEGMENT
??_C@_0BM@EJPIEOIM@Save?5current?5changes?5in?5?$CFs?$DP?$AA@ DB 'Save cu'
	DB	'rrent changes in %s?', 00H			; `string'
; Function compile flags: /Ogtpy
CONST	ENDS
;	COMDAT _AskAboutSave
_TEXT	SEGMENT
_szBuffer$ = -328					; size = 324
__$ArrayPad$ = -4					; size = 4
_hwnd$ = 8						; size = 4
_szTitleName$ = 12					; size = 4
_AskAboutSave PROC					; COMDAT
; Line 138
	sub	esp, 328				; 00000148H
	mov	eax, DWORD PTR ___security_cookie
	xor	eax, esp
	mov	DWORD PTR __$ArrayPad$[esp+328], eax
	mov	ecx, DWORD PTR _csut_TFX_LastProbe
	mov	eax, DWORD PTR _szTitleName$[esp+324]
	push	ebx
	mov	DWORD PTR [ecx], 88			; 00000058H
	mov	edx, DWORD PTR _csut_TFX_CoverageBuffer
	mov	bl, 49					; 00000031H
	push	esi
	mov	BYTE PTR [edx+88], bl
; Line 143
	cmp	BYTE PTR [eax], 0
	push	edi
	mov	edi, DWORD PTR _hwnd$[esp+336]
	jne	SHORT $LN8@AskAboutSa
	mov	eax, OFFSET ??_C@_0L@NBMDIMIK@?$CIuntitled?$CJ?$AA@
$LN8@AskAboutSa:
	push	eax
	lea	eax, DWORD PTR _szBuffer$[esp+344]
	push	OFFSET ??_C@_0BM@EJPIEOIM@Save?5current?5changes?5in?5?$CFs?$DP?$AA@
	push	eax
	call	DWORD PTR __imp__wsprintfA
	add	esp, 12					; 0000000cH
; Line 146
	push	35					; 00000023H
	push	OFFSET _szAppName
	lea	ecx, DWORD PTR _szBuffer$[esp+348]
	push	ecx
	push	edi
	call	DWORD PTR __imp__MessageBoxA@16
	mov	edx, DWORD PTR _csut_TFX_LastProbe
	mov	esi, eax
	mov	DWORD PTR [edx], 89			; 00000059H
	mov	eax, DWORD PTR _csut_TFX_CoverageBuffer
	mov	BYTE PTR [eax+89], bl
; Line 148
	cmp	esi, 6
	jne	SHORT $LN4@AskAboutSa
; Line 149
	mov	ecx, DWORD PTR _csut_TFX_LastProbe
	push	0
	push	40003					; 00009c43H
	mov	DWORD PTR [ecx], 93			; 0000005dH
	mov	edx, DWORD PTR _csut_TFX_CoverageBuffer
	push	273					; 00000111H
	push	edi
	mov	BYTE PTR [edx+93], bl
	call	DWORD PTR __imp__SendMessageA@16
	test	eax, eax
	jne	SHORT $LN3@AskAboutSa
; Line 150
	mov	eax, DWORD PTR _csut_TFX_LastProbe
	mov	DWORD PTR [eax], 91			; 0000005bH
	mov	ecx, DWORD PTR _csut_TFX_CoverageBuffer
	mov	BYTE PTR [ecx+91], bl
	mov	edx, DWORD PTR _csut_TFX_LastProbe
	mov	DWORD PTR [edx], 90			; 0000005aH
	mov	eax, DWORD PTR _csut_TFX_CoverageBuffer
	mov	esi, 2
	mov	BYTE PTR [eax+90], bl
	jmp	SHORT $LN1@AskAboutSa
$LN3@AskAboutSa:
	mov	ecx, DWORD PTR _csut_TFX_LastProbe
	mov	DWORD PTR [ecx], 92			; 0000005cH
	mov	edx, DWORD PTR _csut_TFX_CoverageBuffer
	mov	BYTE PTR [edx+92], bl
	jmp	SHORT $LN1@AskAboutSa
$LN4@AskAboutSa:
	mov	eax, DWORD PTR _csut_TFX_LastProbe
	mov	DWORD PTR [eax], 94			; 0000005eH
	mov	ecx, DWORD PTR _csut_TFX_CoverageBuffer
	mov	BYTE PTR [ecx+94], bl
$LN1@AskAboutSa:
; Line 152
	mov	edx, DWORD PTR _csut_TFX_LastProbe
; Line 153
	mov	ecx, DWORD PTR __$ArrayPad$[esp+340]
	mov	DWORD PTR [edx], 95			; 0000005fH
	mov	eax, DWORD PTR _csut_TFX_CoverageBuffer
	mov	BYTE PTR [eax+95], bl
	pop	edi
	mov	ax, si
	pop	esi
	pop	ebx
	xor	ecx, esp
	call	@__security_check_cookie@4
	add	esp, 328				; 00000148H
	ret	0
_AskAboutSave ENDP
_TEXT	ENDS
PUBLIC	_AboutDlgProc@16
EXTRN	__imp__EndDialog@8:PROC
; Function compile flags: /Ogtpy
;	COMDAT _AboutDlgProc@16
_TEXT	SEGMENT
_hDlg$ = 8						; size = 4
_message$ = 12						; size = 4
_wParam$ = 16						; size = 4
_lParam$ = 20						; size = 4
_AboutDlgProc@16 PROC					; COMDAT
; Line 447
	mov	eax, DWORD PTR _csut_TFX_LastProbe
	mov	DWORD PTR [eax], 245			; 000000f5H
; Line 448
	mov	eax, DWORD PTR _message$[esp-4]
	sub	eax, 272				; 00000110H
	mov	ecx, DWORD PTR _csut_TFX_CoverageBuffer
	push	ebx
	mov	bl, 49					; 00000031H
	mov	BYTE PTR [ecx+245], bl
	je	$LN5@AboutDlgPr
	sub	eax, 1
	je	SHORT $LN4@AboutDlgPr
; Line 461
	mov	edx, DWORD PTR _csut_TFX_LastProbe
	mov	DWORD PTR [edx], 248			; 000000f8H
	mov	eax, DWORD PTR _csut_TFX_CoverageBuffer
	mov	BYTE PTR [eax+248], bl
	jmp	SHORT $codescroll_218261_6_218274_6$77464
$LN4@AboutDlgPr:
; Line 453
	mov	ecx, DWORD PTR _csut_TFX_LastProbe
	mov	DWORD PTR [ecx], 247			; 000000f7H
	mov	edx, DWORD PTR _csut_TFX_CoverageBuffer
	mov	BYTE PTR [edx+247], bl
	mov	eax, DWORD PTR _csut_TFX_LastProbe
	mov	DWORD PTR [eax], 242			; 000000f2H
; Line 454
	movzx	eax, WORD PTR _wParam$[esp]
	sub	eax, 1
	mov	ecx, DWORD PTR _csut_TFX_CoverageBuffer
	mov	BYTE PTR [ecx+242], bl
; Line 459
	mov	edx, DWORD PTR _csut_TFX_LastProbe
	je	SHORT $LN1@AboutDlgPr
	mov	DWORD PTR [edx], 244			; 000000f4H
	mov	eax, DWORD PTR _csut_TFX_CoverageBuffer
	mov	BYTE PTR [eax+244], bl
; Line 460
	mov	ecx, DWORD PTR _csut_TFX_LastProbe
	mov	DWORD PTR [ecx], 249			; 000000f9H
	mov	edx, DWORD PTR _csut_TFX_CoverageBuffer
$codescroll_218267_11_218272_11$77463:
	mov	BYTE PTR [edx+249], bl
$codescroll_218261_6_218274_6$77464:
; Line 462
	mov	eax, DWORD PTR _csut_TFX_LastProbe
	mov	DWORD PTR [eax], 252			; 000000fcH
	mov	ecx, DWORD PTR _csut_TFX_CoverageBuffer
	mov	BYTE PTR [ecx+252], bl
	xor	eax, eax
	pop	ebx
; Line 463
	ret	16					; 00000010H
$LN1@AboutDlgPr:
; Line 457
	mov	ecx, DWORD PTR _hDlg$[esp]
	mov	DWORD PTR [edx], 243			; 000000f3H
	mov	eax, DWORD PTR _csut_TFX_CoverageBuffer
	push	0
	push	ecx
	mov	BYTE PTR [eax+243], bl
	call	DWORD PTR __imp__EndDialog@8
; Line 458
	mov	edx, DWORD PTR _csut_TFX_LastProbe
	mov	DWORD PTR [edx], 251			; 000000fbH
	mov	eax, DWORD PTR _csut_TFX_CoverageBuffer
	mov	BYTE PTR [eax+251], bl
	mov	eax, 1
	pop	ebx
; Line 463
	ret	16					; 00000010H
$LN5@AboutDlgPr:
; Line 450
	mov	ecx, DWORD PTR _csut_TFX_LastProbe
	mov	DWORD PTR [ecx], 246			; 000000f6H
	mov	edx, DWORD PTR _csut_TFX_CoverageBuffer
	mov	BYTE PTR [edx+246], bl
; Line 451
	mov	eax, DWORD PTR _csut_TFX_LastProbe
	mov	DWORD PTR [eax], 250			; 000000faH
	mov	ecx, DWORD PTR _csut_TFX_CoverageBuffer
	mov	BYTE PTR [ecx+250], bl
	mov	eax, 1
	pop	ebx
; Line 463
	ret	16					; 00000010H
_AboutDlgProc@16 ENDP
_TEXT	ENDS
PUBLIC	??_C@_0BC@BIIKKLIG@AboutDlgProc_ret0?$AA@	; `string'
EXTRN	_csut_TFX_writeIntOutput:PROC
;	COMDAT ??_C@_0BC@BIIKKLIG@AboutDlgProc_ret0?$AA@
; File f:\20120709_enterprise_ct_v2.0_workspace\vc2008_poppad3_c\unittest\aboutdlgproc_csut0.c
CONST	SEGMENT
??_C@_0BC@BIIKKLIG@AboutDlgProc_ret0?$AA@ DB 'AboutDlgProc_ret0', 00H ; `string'
; Function compile flags: /Ogtpy
CONST	ENDS
;	COMDAT _AboutDlgProc_csut0
_TEXT	SEGMENT
_hDlg$ = 8						; size = 4
_csutp$ = 8						; size = 4
_AboutDlgProc_csut0 PROC				; COMDAT
; Line 25
	mov	eax, DWORD PTR _csutp$[esp-4]
	mov	ecx, DWORD PTR [eax]
; Line 26
	mov	edx, DWORD PTR [eax+4]
; Line 27
	mov	eax, DWORD PTR [eax+8]
; Line 29
	push	eax
	mov	eax, DWORD PTR _hDlg$[esp]
	push	edx
	push	ecx
	push	eax
	call	_AboutDlgProc@16
; Line 30
	push	0
	push	0
	cdq
	push	4
	push	edx
	push	eax
	push	OFFSET ??_C@_0BC@BIIKKLIG@AboutDlgProc_ret0?$AA@
	call	_csut_TFX_writeIntOutput
	add	esp, 24					; 00000018H
; Line 32
	ret	0
_AboutDlgProc_csut0 ENDP
_TEXT	ENDS
PUBLIC	??_C@_0BC@IKLFNCL@AskAboutSave_ret0?$AA@	; `string'
;	COMDAT ??_C@_0BC@IKLFNCL@AskAboutSave_ret0?$AA@
; File f:\20120709_enterprise_ct_v2.0_workspace\vc2008_poppad3_c\unittest\askaboutsave_csut0.c
CONST	SEGMENT
??_C@_0BC@IKLFNCL@AskAboutSave_ret0?$AA@ DB 'AskAboutSave_ret0', 00H ; `string'
; Function compile flags: /Ogtpy
CONST	ENDS
;	COMDAT _AskAboutSave_csut0
_TEXT	SEGMENT
_hwnd$ = 8						; size = 4
_mem0$ = 8						; size = 1
_csutp$ = 8						; size = 4
_AskAboutSave_csut0 PROC				; COMDAT
; Line 25
	mov	eax, DWORD PTR _csutp$[esp-4]
	mov	cl, BYTE PTR [eax]
; Line 26
	mov	dl, BYTE PTR [eax+1]
; Line 28
	lea	eax, DWORD PTR _mem0$[esp-4]
	mov	BYTE PTR _mem0$[esp-4], cl
	mov	ecx, DWORD PTR _hwnd$[esp-4]
	push	eax
	push	ecx
	mov	BYTE PTR _szAppName, dl
	call	_AskAboutSave
	movzx	eax, ax
; Line 29
	push	0
	cwde
	push	0
	cdq
	push	2
	push	edx
	push	eax
	push	OFFSET ??_C@_0BC@IKLFNCL@AskAboutSave_ret0?$AA@
	call	_csut_TFX_writeIntOutput
	add	esp, 32					; 00000020H
; Line 31
	ret	0
_AskAboutSave_csut0 ENDP
; Function compile flags: /Ogtpy
_TEXT	ENDS
;	COMDAT _DoCaption_csut0
_TEXT	SEGMENT
_hwnd$ = 8						; size = 4
_mem1$ = 8						; size = 1
_csutp$ = 8						; size = 4
_DoCaption_csut0 PROC					; COMDAT
; File f:\20120709_enterprise_ct_v2.0_workspace\vc2008_poppad3_c\unittest\docaption_csut0.c
; Line 24
	mov	eax, DWORD PTR _csutp$[esp-4]
	mov	cl, BYTE PTR [eax]
; Line 25
	mov	dl, BYTE PTR [eax+1]
; Line 27
	lea	eax, DWORD PTR _mem1$[esp-4]
	mov	BYTE PTR _mem1$[esp-4], cl
	mov	ecx, DWORD PTR _hwnd$[esp-4]
	push	eax
	push	ecx
	mov	BYTE PTR _szAppName, dl
	call	_DoCaption
	add	esp, 8
; Line 28
	ret	0
_DoCaption_csut0 ENDP
; Function compile flags: /Ogtpy
_TEXT	ENDS
;	COMDAT _OkMessage_csut0
_TEXT	SEGMENT
_mem2$ = -1						; size = 1
_hwnd$ = 8						; size = 4
_mem3$ = 8						; size = 1
_csutp$ = 8						; size = 4
_OkMessage_csut0 PROC					; COMDAT
; File f:\20120709_enterprise_ct_v2.0_workspace\vc2008_poppad3_c\unittest\okmessage_csut0.c
; Line 18
	push	ecx
; Line 28
	mov	eax, DWORD PTR _csutp$[esp]
	mov	cl, BYTE PTR [eax]
; Line 29
	mov	dl, BYTE PTR [eax+1]
; Line 30
	mov	al, BYTE PTR [eax+2]
	mov	BYTE PTR _mem2$[esp+4], cl
	mov	BYTE PTR _mem3$[esp], dl
; Line 32
	lea	ecx, DWORD PTR _mem3$[esp]
	push	ecx
	lea	edx, DWORD PTR _mem2$[esp+8]
	mov	BYTE PTR _szAppName, al
	mov	eax, DWORD PTR _hwnd$[esp+4]
	push	edx
	push	eax
	call	_OkMessage
; Line 33
	add	esp, 16					; 00000010H
	ret	0
_OkMessage_csut0 ENDP
_TEXT	ENDS
PUBLIC	??_C@_08PNOCFCPH@AboutBox?$AA@			; `string'
PUBLIC	??_C@_0BK@CODGMOHH@Help?5not?5yet?5implemented?$CB?$AA@ ; `string'
PUBLIC	??_C@_0BI@GOAFHDCL@Could?5not?5print?5file?5?$CFs?$AA@ ; `string'
PUBLIC	??_C@_0BI@IPPNKPHC@Could?5not?5write?5file?5?$CFs?$AA@ ; `string'
PUBLIC	??_C@_0BI@FEKNEDNN@Could?5not?5read?5file?5?$CFs?$CB?$AA@ ; `string'
PUBLIC	??_C@_0BL@MPBKNKIF@Edit?5control?5out?5of?5space?4?$AA@ ; `string'
PUBLIC	??_C@_0BA@ILOGOEDE@Text?5not?5found?$CB?$AA@	; `string'
PUBLIC	??_C@_01LOCGONAA@?$AA?$AA@			; `string'
PUBLIC	??_C@_0BE@HCHEOIBF@commdlg_FindReplace?$AA@	; `string'
PUBLIC	??_C@_04NABONMNG@edit?$AA@			; `string'
PUBLIC	_WndProc@16
EXTRN	__imp__DefWindowProcA@16:PROC
EXTRN	__imp__DialogBoxParamA@20:PROC
EXTRN	_PopFontSetFont:PROC
EXTRN	_PopFontChooseFont:PROC
EXTRN	_PopFindReplaceDlg:PROC
EXTRN	_PopFindNextText:PROC
EXTRN	_PopFindValidFind:PROC
EXTRN	_PopFindFindDlg:PROC
EXTRN	_PopPrntPrintFile:PROC
EXTRN	_PopFileSaveDlg:PROC
EXTRN	_PopFileWrite:PROC
EXTRN	_PopFileRead:PROC
EXTRN	_PopFileOpenDlg:PROC
EXTRN	__imp__IsClipboardFormatAvailable@4:PROC
EXTRN	__imp__EnableMenuItem@12:PROC
EXTRN	_PopFindReplaceText:PROC
EXTRN	_PopFindFindText:PROC
EXTRN	__imp__DestroyWindow@4:PROC
EXTRN	__imp__PostQuitMessage@4:PROC
EXTRN	_PopFontDeinitialize:PROC
EXTRN	__imp__MoveWindow@24:PROC
EXTRN	__imp__SetFocus@4:PROC
EXTRN	__imp__RegisterWindowMessageA@4:PROC
EXTRN	_PopFontInitialize:PROC
EXTRN	_PopFileInitialize:PROC
EXTRN	__imp__CreateWindowExA@48:PROC
_BSS	SEGMENT
?szFileName@?1??WndProc@@9@9 DB 0104H DUP (?)		; `WndProc'::`2'::szFileName
?iOffset@?1??WndProc@@9@9 DD 01H DUP (?)		; `WndProc'::`2'::iOffset
_hDlgModeless DD 01H DUP (?)
?messageFindReplace@?1??WndProc@@9@9 DD 01H DUP (?)	; `WndProc'::`2'::messageFindReplace
?szTitleName@?1??WndProc@@9@9 DB 0104H DUP (?)		; `WndProc'::`2'::szTitleName
?hwndEdit@?1??WndProc@@9@9 DD 01H DUP (?)		; `WndProc'::`2'::hwndEdit
?hInst@?1??WndProc@@9@9 DD 01H DUP (?)			; `WndProc'::`2'::hInst
_BSS	ENDS
;	COMDAT ??_C@_08PNOCFCPH@AboutBox?$AA@
; File d:\open source\vs2008\c\poppad3\poppad.c
CONST	SEGMENT
??_C@_08PNOCFCPH@AboutBox?$AA@ DB 'AboutBox', 00H	; `string'
CONST	ENDS
;	COMDAT ??_C@_0BK@CODGMOHH@Help?5not?5yet?5implemented?$CB?$AA@
CONST	SEGMENT
??_C@_0BK@CODGMOHH@Help?5not?5yet?5implemented?$CB?$AA@ DB 'Help not yet '
	DB	'implemented!', 00H				; `string'
CONST	ENDS
;	COMDAT ??_C@_0BI@GOAFHDCL@Could?5not?5print?5file?5?$CFs?$AA@
CONST	SEGMENT
??_C@_0BI@GOAFHDCL@Could?5not?5print?5file?5?$CFs?$AA@ DB 'Could not prin'
	DB	't file %s', 00H				; `string'
CONST	ENDS
;	COMDAT ??_C@_0BI@IPPNKPHC@Could?5not?5write?5file?5?$CFs?$AA@
CONST	SEGMENT
??_C@_0BI@IPPNKPHC@Could?5not?5write?5file?5?$CFs?$AA@ DB 'Could not writ'
	DB	'e file %s', 00H				; `string'
CONST	ENDS
;	COMDAT ??_C@_0BI@FEKNEDNN@Could?5not?5read?5file?5?$CFs?$CB?$AA@
CONST	SEGMENT
??_C@_0BI@FEKNEDNN@Could?5not?5read?5file?5?$CFs?$CB?$AA@ DB 'Could not r'
	DB	'ead file %s!', 00H				; `string'
CONST	ENDS
;	COMDAT ??_C@_0BL@MPBKNKIF@Edit?5control?5out?5of?5space?4?$AA@
CONST	SEGMENT
??_C@_0BL@MPBKNKIF@Edit?5control?5out?5of?5space?4?$AA@ DB 'Edit control '
	DB	'out of space.', 00H				; `string'
CONST	ENDS
;	COMDAT ??_C@_0BA@ILOGOEDE@Text?5not?5found?$CB?$AA@
CONST	SEGMENT
??_C@_0BA@ILOGOEDE@Text?5not?5found?$CB?$AA@ DB 'Text not found!', 00H ; `string'
CONST	ENDS
;	COMDAT ??_C@_01LOCGONAA@?$AA?$AA@
CONST	SEGMENT
??_C@_01LOCGONAA@?$AA?$AA@ DB 00H, 00H			; `string'
CONST	ENDS
;	COMDAT ??_C@_0BE@HCHEOIBF@commdlg_FindReplace?$AA@
CONST	SEGMENT
??_C@_0BE@HCHEOIBF@commdlg_FindReplace?$AA@ DB 'commdlg_FindReplace', 00H ; `string'
CONST	ENDS
;	COMDAT ??_C@_04NABONMNG@edit?$AA@
CONST	SEGMENT
??_C@_04NABONMNG@edit?$AA@ DB 'edit', 00H		; `string'
; Function compile flags: /Ogtpy
CONST	ENDS
;	COMDAT _WndProc@16
_TEXT	SEGMENT
_iSelBeg$ = -8						; size = 4
_iSelEnd$ = -4						; size = 4
_hwnd$ = 8						; size = 4
_message$ = 12						; size = 4
_wParam$ = 16						; size = 4
_lParam$ = 20						; size = 4
_WndProc@16 PROC					; COMDAT
; Line 162
	mov	eax, DWORD PTR _csut_TFX_LastProbe
	sub	esp, 8
	mov	DWORD PTR [eax], 96			; 00000060H
	mov	ecx, DWORD PTR _csut_TFX_CoverageBuffer
	push	ebx
	mov	bl, 49					; 00000031H
	mov	BYTE PTR [ecx+96], bl
; Line 170
	mov	edx, DWORD PTR _csut_TFX_LastProbe
; Line 172
	mov	ecx, DWORD PTR _message$[esp+8]
	mov	DWORD PTR [edx], 97			; 00000061H
	mov	eax, DWORD PTR _csut_TFX_CoverageBuffer
	mov	edx, DWORD PTR _wParam$[esp+8]
	push	esi
	mov	esi, DWORD PTR _lParam$[esp+12]
	push	edi
	mov	BYTE PTR [eax+97], bl
	cmp	ecx, 16					; 00000010H
	ja	$LN111@WndProc
	je	$LN24@WndProc
	lea	eax, DWORD PTR [ecx-1]
	cmp	eax, 6
	ja	$LN17@WndProc
	jmp	DWORD PTR $LN121@WndProc[eax*4]
$LN82@WndProc:
; Line 174
	mov	ecx, DWORD PTR _csut_TFX_LastProbe
; Line 175
	mov	eax, DWORD PTR _lParam$[esp+16]
; Line 179
	mov	esi, DWORD PTR _hwnd$[esp+16]
	push	0
	mov	DWORD PTR [ecx], 195			; 000000c3H
	mov	edx, DWORD PTR _csut_TFX_CoverageBuffer
	mov	BYTE PTR [edx+195], bl
	mov	eax, DWORD PTR [eax+4]
	push	eax
	push	1
	push	esi
	push	0
	push	0
	push	0
	push	0
	push	1353712068				; 50b001c4H
	push	0
	push	OFFSET ??_C@_04NABONMNG@edit?$AA@
	push	0
	mov	DWORD PTR ?hInst@?1??WndProc@@9@9, eax
	call	DWORD PTR __imp__CreateWindowExA@48
; Line 162
	push	0
	push	32000					; 00007d00H
	push	197					; 000000c5H
	push	eax
	mov	DWORD PTR ?hwndEdit@?1??WndProc@@9@9, eax
	call	DWORD PTR __imp__SendMessageA@16
; Line 166
	push	esi
	call	_PopFileInitialize
; Line 167
	mov	ecx, DWORD PTR ?hwndEdit@?1??WndProc@@9@9
	push	ecx
	call	_PopFontInitialize
	add	esp, 8
; Line 169
	push	OFFSET ??_C@_0BE@HCHEOIBF@commdlg_FindReplace?$AA@
	call	DWORD PTR __imp__RegisterWindowMessageA@4
; Line 171
	push	OFFSET ?szTitleName@?1??WndProc@@9@9
	push	esi
	mov	DWORD PTR ?messageFindReplace@?1??WndProc@@9@9, eax
	call	_DoCaption
; Line 172
	mov	edx, DWORD PTR _csut_TFX_LastProbe
	add	esp, 8
	mov	DWORD PTR [edx], 207			; 000000cfH
	mov	eax, DWORD PTR _csut_TFX_CoverageBuffer
	pop	edi
	mov	BYTE PTR [eax+207], bl
	pop	esi
; Line 402
	xor	eax, eax
	pop	ebx
; Line 437
	add	esp, 8
	ret	16					; 00000010H
$LN81@WndProc:
; Line 174
	mov	ecx, DWORD PTR _csut_TFX_LastProbe
; Line 175
	mov	eax, DWORD PTR ?hwndEdit@?1??WndProc@@9@9
	mov	DWORD PTR [ecx], 196			; 000000c4H
	mov	edx, DWORD PTR _csut_TFX_CoverageBuffer
	push	eax
	mov	BYTE PTR [edx+196], bl
	call	DWORD PTR __imp__SetFocus@4
; Line 176
	mov	ecx, DWORD PTR _csut_TFX_LastProbe
	mov	DWORD PTR [ecx], 208			; 000000d0H
	mov	edx, DWORD PTR _csut_TFX_CoverageBuffer
	pop	edi
	pop	esi
	mov	BYTE PTR [edx+208], bl
; Line 402
	xor	eax, eax
	pop	ebx
; Line 437
	add	esp, 8
	ret	16					; 00000010H
$LN80@WndProc:
; Line 178
	mov	eax, DWORD PTR _csut_TFX_LastProbe
	mov	DWORD PTR [eax], 197			; 000000c5H
; Line 179
	mov	eax, DWORD PTR _lParam$[esp+16]
	mov	ecx, DWORD PTR _csut_TFX_CoverageBuffer
	push	1
	mov	edx, eax
	shr	edx, 16					; 00000010H
	push	edx
	movzx	eax, ax
	push	eax
	push	0
	mov	BYTE PTR [ecx+197], bl
	mov	ecx, DWORD PTR ?hwndEdit@?1??WndProc@@9@9
	push	0
	push	ecx
	call	DWORD PTR __imp__MoveWindow@24
; Line 180
	mov	edx, DWORD PTR _csut_TFX_LastProbe
	mov	DWORD PTR [edx], 209			; 000000d1H
	mov	eax, DWORD PTR _csut_TFX_CoverageBuffer
	pop	edi
	mov	BYTE PTR [eax+209], bl
	pop	esi
; Line 402
	xor	eax, eax
	pop	ebx
; Line 437
	add	esp, 8
	ret	16					; 00000010H
$LN18@WndProc:
; Line 404
	mov	ecx, DWORD PTR _csut_TFX_LastProbe
	mov	DWORD PTR [ecx], 202			; 000000caH
	mov	edx, DWORD PTR _csut_TFX_CoverageBuffer
	mov	BYTE PTR [edx+202], bl
; Line 405
	call	_PopFontDeinitialize
; Line 406
	push	0
	call	DWORD PTR __imp__PostQuitMessage@4
; Line 407
	mov	eax, DWORD PTR _csut_TFX_LastProbe
	mov	DWORD PTR [eax], 239			; 000000efH
	mov	ecx, DWORD PTR _csut_TFX_CoverageBuffer
	pop	edi
	pop	esi
	mov	BYTE PTR [ecx+239], bl
	xor	eax, eax
	pop	ebx
; Line 437
	add	esp, 8
	ret	16					; 00000010H
$LN24@WndProc:
; Line 393
	cmp	DWORD PTR ?bNeedSave@?1??WndProc@@9@9, 0
	mov	edx, DWORD PTR _csut_TFX_LastProbe
	mov	esi, DWORD PTR _hwnd$[esp+16]
	mov	DWORD PTR [edx], 200			; 000000c8H
	mov	eax, DWORD PTR _csut_TFX_CoverageBuffer
	mov	BYTE PTR [eax+200], bl
	mov	ecx, DWORD PTR _csut_TFX_LastProbe
	mov	DWORD PTR [ecx], 166			; 000000a6H
	mov	edx, DWORD PTR _csut_TFX_CoverageBuffer
	mov	BYTE PTR [edx+166], bl
	je	$LN101@WndProc
	push	OFFSET ?szTitleName@?1??WndProc@@9@9
	push	esi
	call	_AskAboutSave
	mov	ecx, 2
	add	esp, 8
	cmp	cx, ax
	je	SHORT $LN99@WndProc
	mov	edx, DWORD PTR _csut_TFX_LastProbe
	mov	DWORD PTR [edx], 267			; 0000010bH
	mov	eax, DWORD PTR _csut_TFX_CoverageBuffer
	mov	BYTE PTR [eax+267], bl
	jmp	SHORT $LN114@WndProc
$LN99@WndProc:
	mov	ecx, DWORD PTR _csut_TFX_LastProbe
	mov	DWORD PTR [ecx], 268			; 0000010cH
	mov	edx, DWORD PTR _csut_TFX_CoverageBuffer
	mov	BYTE PTR [edx+268], bl
; Line 394
	mov	eax, DWORD PTR _csut_TFX_LastProbe
	mov	DWORD PTR [eax], 169			; 000000a9H
	mov	ecx, DWORD PTR _csut_TFX_CoverageBuffer
	mov	BYTE PTR [ecx+169], bl
$LN22@WndProc:
; Line 396
	mov	edx, DWORD PTR _csut_TFX_LastProbe
	mov	DWORD PTR [edx], 236			; 000000ecH
	mov	eax, DWORD PTR _csut_TFX_CoverageBuffer
	pop	edi
	mov	BYTE PTR [eax+236], bl
	pop	esi
; Line 402
	xor	eax, eax
	pop	ebx
; Line 437
	add	esp, 8
	ret	16					; 00000010H
$LN101@WndProc:
; Line 393
	mov	eax, DWORD PTR _csut_TFX_LastProbe
	mov	DWORD PTR [eax], 269			; 0000010dH
	mov	ecx, DWORD PTR _csut_TFX_CoverageBuffer
	mov	BYTE PTR [ecx+269], bl
$LN114@WndProc:
; Line 394
	mov	edx, DWORD PTR _csut_TFX_LastProbe
	mov	DWORD PTR [edx], 168			; 000000a8H
	mov	eax, DWORD PTR _csut_TFX_CoverageBuffer
	push	esi
	mov	BYTE PTR [eax+168], bl
	call	DWORD PTR __imp__DestroyWindow@4
	mov	ecx, DWORD PTR _csut_TFX_LastProbe
	mov	DWORD PTR [ecx], 167			; 000000a7H
	mov	edx, DWORD PTR _csut_TFX_CoverageBuffer
	mov	BYTE PTR [edx+167], bl
	jmp	SHORT $LN22@WndProc
$LN111@WndProc:
; Line 172
	mov	eax, ecx
	sub	eax, 17					; 00000011H
	je	$LN21@WndProc
	sub	eax, 256				; 00000100H
	je	$LN74@WndProc
	sub	eax, 6
	je	$LN79@WndProc
$LN17@WndProc:
; Line 409
	mov	eax, DWORD PTR _csut_TFX_LastProbe
	mov	DWORD PTR [eax], 203			; 000000cbH
	mov	eax, DWORD PTR _csut_TFX_CoverageBuffer
	mov	BYTE PTR [eax+203], bl
	mov	eax, DWORD PTR _csut_TFX_LastProbe
	mov	DWORD PTR [eax], 173			; 000000adH
	mov	eax, DWORD PTR _csut_TFX_CoverageBuffer
	mov	BYTE PTR [eax+173], bl
; Line 412
	cmp	ecx, DWORD PTR ?messageFindReplace@?1??WndProc@@9@9
	jne	$LN16@WndProc
; Line 413
	mov	ecx, DWORD PTR _csut_TFX_LastProbe
; Line 416
	mov	esi, DWORD PTR _lParam$[esp+16]
	mov	DWORD PTR [ecx], 193			; 000000c1H
	mov	edx, DWORD PTR _csut_TFX_CoverageBuffer
	mov	BYTE PTR [edx+193], bl
	mov	eax, DWORD PTR _csut_TFX_LastProbe
	mov	DWORD PTR [eax], 174			; 000000aeH
	mov	ecx, DWORD PTR _csut_TFX_CoverageBuffer
	mov	BYTE PTR [ecx+174], bl
	test	BYTE PTR [esi+12], 64			; 00000040H
	je	SHORT $LN15@WndProc
; Line 417
	mov	edx, DWORD PTR _csut_TFX_LastProbe
	mov	DWORD PTR [edx], 176			; 000000b0H
	mov	eax, DWORD PTR _csut_TFX_CoverageBuffer
	mov	BYTE PTR [eax+176], bl
	mov	ecx, DWORD PTR _csut_TFX_LastProbe
	mov	DWORD PTR [ecx], 175			; 000000afH
	mov	edx, DWORD PTR _csut_TFX_CoverageBuffer
	mov	DWORD PTR _hDlgModeless, 0
	mov	BYTE PTR [edx+175], bl
	jmp	SHORT $LN14@WndProc
$LN15@WndProc:
	mov	eax, DWORD PTR _csut_TFX_LastProbe
	mov	DWORD PTR [eax], 177			; 000000b1H
	mov	ecx, DWORD PTR _csut_TFX_CoverageBuffer
	mov	BYTE PTR [ecx+177], bl
$LN14@WndProc:
; Line 419
	test	BYTE PTR [esi+12], 8
	mov	edi, DWORD PTR _hwnd$[esp+16]
; Line 420
	mov	edx, DWORD PTR _csut_TFX_LastProbe
	je	$LN13@WndProc
	mov	ecx, DWORD PTR ?hwndEdit@?1??WndProc@@9@9
	push	esi
	mov	DWORD PTR [edx], 181			; 000000b5H
	mov	eax, DWORD PTR _csut_TFX_CoverageBuffer
	push	OFFSET ?iOffset@?1??WndProc@@9@9
	push	ecx
	mov	BYTE PTR [eax+181], bl
	call	_PopFindFindText
	add	esp, 12					; 0000000cH
	test	eax, eax
	jne	SHORT $LN12@WndProc
; Line 421
	mov	edx, DWORD PTR _csut_TFX_LastProbe
; Line 422
	push	OFFSET ??_C@_01LOCGONAA@?$AA?$AA@
	mov	DWORD PTR [edx], 179			; 000000b3H
	mov	eax, DWORD PTR _csut_TFX_CoverageBuffer
	push	OFFSET ??_C@_0BA@ILOGOEDE@Text?5not?5found?$CB?$AA@
	push	edi
	mov	BYTE PTR [eax+179], bl
	call	_OkMessage
	mov	ecx, DWORD PTR _csut_TFX_LastProbe
	mov	DWORD PTR [ecx], 178			; 000000b2H
	mov	edx, DWORD PTR _csut_TFX_CoverageBuffer
	add	esp, 12					; 0000000cH
	mov	BYTE PTR [edx+178], bl
	jmp	SHORT $LN10@WndProc
$LN12@WndProc:
	mov	eax, DWORD PTR _csut_TFX_LastProbe
	mov	DWORD PTR [eax], 180			; 000000b4H
	mov	ecx, DWORD PTR _csut_TFX_CoverageBuffer
	mov	BYTE PTR [ecx+180], bl
	jmp	SHORT $LN10@WndProc
$LN13@WndProc:
	mov	DWORD PTR [edx], 182			; 000000b6H
	mov	eax, DWORD PTR _csut_TFX_CoverageBuffer
	mov	BYTE PTR [eax+182], bl
$LN10@WndProc:
; Line 424
	mov	eax, DWORD PTR [esi+12]
	test	al, 16					; 00000010H
	je	$LN109@WndProc
	mov	ecx, DWORD PTR _csut_TFX_LastProbe
	mov	DWORD PTR [ecx], 273			; 00000111H
	mov	edx, DWORD PTR _csut_TFX_CoverageBuffer
	mov	BYTE PTR [edx+273], bl
$LN115@WndProc:
; Line 425
	mov	ecx, DWORD PTR _csut_TFX_LastProbe
	mov	eax, DWORD PTR ?hwndEdit@?1??WndProc@@9@9
	push	esi
	mov	DWORD PTR [ecx], 186			; 000000baH
	mov	edx, DWORD PTR _csut_TFX_CoverageBuffer
	push	OFFSET ?iOffset@?1??WndProc@@9@9
	push	eax
	mov	BYTE PTR [edx+186], bl
	call	_PopFindReplaceText
	add	esp, 12					; 0000000cH
	test	eax, eax
	jne	$LN8@WndProc
; Line 426
	mov	ecx, DWORD PTR _csut_TFX_LastProbe
; Line 427
	push	OFFSET ??_C@_01LOCGONAA@?$AA?$AA@
	mov	DWORD PTR [ecx], 184			; 000000b8H
	mov	edx, DWORD PTR _csut_TFX_CoverageBuffer
	push	OFFSET ??_C@_0BA@ILOGOEDE@Text?5not?5found?$CB?$AA@
	push	edi
	mov	BYTE PTR [edx+184], bl
	call	_OkMessage
	mov	eax, DWORD PTR _csut_TFX_LastProbe
	mov	DWORD PTR [eax], 183			; 000000b7H
	mov	ecx, DWORD PTR _csut_TFX_CoverageBuffer
	add	esp, 12					; 0000000cH
	mov	BYTE PTR [ecx+183], bl
	jmp	SHORT $LN6@WndProc
$LN109@WndProc:
; Line 424
	test	al, 32					; 00000020H
	je	SHORT $LN107@WndProc
	mov	eax, DWORD PTR _csut_TFX_LastProbe
	mov	DWORD PTR [eax], 274			; 00000112H
	mov	ecx, DWORD PTR _csut_TFX_CoverageBuffer
	mov	BYTE PTR [ecx+274], bl
	jmp	$LN115@WndProc
$LN107@WndProc:
	mov	edx, DWORD PTR _csut_TFX_LastProbe
	mov	DWORD PTR [edx], 275			; 00000113H
	mov	eax, DWORD PTR _csut_TFX_CoverageBuffer
	mov	BYTE PTR [eax+275], bl
; Line 427
	mov	ecx, DWORD PTR _csut_TFX_LastProbe
	mov	DWORD PTR [ecx], 187			; 000000bbH
	mov	edx, DWORD PTR _csut_TFX_CoverageBuffer
	mov	BYTE PTR [edx+187], bl
$LN6@WndProc:
; Line 429
	test	BYTE PTR [esi+12], 32			; 00000020H
	je	$LN5@WndProc
; Line 430
	mov	eax, DWORD PTR _csut_TFX_LastProbe
	mov	edx, DWORD PTR ?hwndEdit@?1??WndProc@@9@9
	push	esi
	mov	DWORD PTR [eax], 191			; 000000bfH
	mov	ecx, DWORD PTR _csut_TFX_CoverageBuffer
	push	OFFSET ?iOffset@?1??WndProc@@9@9
	push	edx
	mov	BYTE PTR [ecx+191], bl
	call	_PopFindReplaceText
	add	esp, 12					; 0000000cH
	test	eax, eax
	je	SHORT $LN3@WndProc
$LL4@WndProc:
	mov	eax, DWORD PTR _csut_TFX_LastProbe
	mov	DWORD PTR [eax], 189			; 000000bdH
	mov	ecx, DWORD PTR _csut_TFX_CoverageBuffer
	mov	BYTE PTR [ecx+189], bl
	mov	edx, DWORD PTR _csut_TFX_LastProbe
	mov	ecx, DWORD PTR ?hwndEdit@?1??WndProc@@9@9
	push	esi
	mov	DWORD PTR [edx], 188			; 000000bcH
	mov	eax, DWORD PTR _csut_TFX_CoverageBuffer
	push	OFFSET ?iOffset@?1??WndProc@@9@9
	push	ecx
	mov	BYTE PTR [eax+188], bl
	call	_PopFindReplaceText
	add	esp, 12					; 0000000cH
	test	eax, eax
	jne	SHORT $LL4@WndProc
$LN3@WndProc:
	mov	edx, DWORD PTR _csut_TFX_LastProbe
	mov	DWORD PTR [edx], 190			; 000000beH
	mov	eax, DWORD PTR _csut_TFX_CoverageBuffer
	mov	BYTE PTR [eax+190], bl
	jmp	SHORT $LN2@WndProc
$LN8@WndProc:
; Line 427
	mov	edx, DWORD PTR _csut_TFX_LastProbe
	mov	DWORD PTR [edx], 185			; 000000b9H
	mov	eax, DWORD PTR _csut_TFX_CoverageBuffer
	mov	BYTE PTR [eax+185], bl
	jmp	$LN6@WndProc
$LN5@WndProc:
; Line 430
	mov	ecx, DWORD PTR _csut_TFX_LastProbe
	mov	DWORD PTR [ecx], 192			; 000000c0H
	mov	edx, DWORD PTR _csut_TFX_CoverageBuffer
	mov	BYTE PTR [edx+192], bl
$LN2@WndProc:
; Line 432
	mov	eax, DWORD PTR _csut_TFX_LastProbe
	mov	DWORD PTR [eax], 240			; 000000f0H
	mov	ecx, DWORD PTR _csut_TFX_CoverageBuffer
	pop	edi
	pop	esi
	mov	BYTE PTR [ecx+240], bl
	xor	eax, eax
	pop	ebx
; Line 437
	add	esp, 8
	ret	16					; 00000010H
$LN16@WndProc:
; Line 433
	mov	eax, DWORD PTR _csut_TFX_LastProbe
	mov	DWORD PTR [eax], 194			; 000000c2H
	mov	eax, DWORD PTR _csut_TFX_CoverageBuffer
	mov	BYTE PTR [eax+194], bl
; Line 434
	mov	eax, DWORD PTR _csut_TFX_LastProbe
	mov	DWORD PTR [eax], 206			; 000000ceH
	mov	eax, DWORD PTR _csut_TFX_CoverageBuffer
	mov	BYTE PTR [eax+206], bl
	jmp	$codescroll_217971_6_218254_6$77354
$LN79@WndProc:
; Line 182
	mov	ecx, DWORD PTR _csut_TFX_LastProbe
	mov	DWORD PTR [ecx], 198			; 000000c6H
	mov	edx, DWORD PTR _csut_TFX_CoverageBuffer
	mov	BYTE PTR [edx+198], bl
	mov	eax, DWORD PTR _csut_TFX_LastProbe
	mov	DWORD PTR [eax], 98			; 00000062H
; Line 183
	mov	eax, DWORD PTR _lParam$[esp+16]
	sub	eax, 1
	mov	ecx, DWORD PTR _csut_TFX_CoverageBuffer
	push	ebp
	mov	BYTE PTR [ecx+98], bl
	je	SHORT $LN76@WndProc
	sub	eax, 1
	je	SHORT $LN75@WndProc
; Line 223
	mov	edx, DWORD PTR _csut_TFX_LastProbe
	mov	DWORD PTR [edx], 101			; 00000065H
	mov	eax, DWORD PTR _csut_TFX_CoverageBuffer
	mov	BYTE PTR [eax+101], bl
	jmp	$codescroll_218002_11_218042_11$77333
$LN75@WndProc:
; Line 211
	mov	ecx, DWORD PTR _csut_TFX_LastProbe
; Line 219
	mov	edi, DWORD PTR _wParam$[esp+20]
	mov	ebp, DWORD PTR __imp__EnableMenuItem@12
	xor	eax, eax
	cmp	DWORD PTR _hDlgModeless, eax
	mov	DWORD PTR [ecx], 100			; 00000064H
	mov	edx, DWORD PTR _csut_TFX_CoverageBuffer
	setne	al
	mov	BYTE PTR [edx+100], bl
	mov	esi, eax
	push	esi
	push	40013					; 00009c4dH
	push	edi
	call	ebp
; Line 220
	push	esi
	push	40014					; 00009c4eH
	push	edi
	call	ebp
; Line 221
	push	esi
	push	40015					; 00009c4fH
	push	edi
	call	ebp
; Line 222
	mov	ecx, DWORD PTR _csut_TFX_LastProbe
	mov	DWORD PTR [ecx], 103			; 00000067H
	mov	edx, DWORD PTR _csut_TFX_CoverageBuffer
	mov	BYTE PTR [edx+103], bl
	jmp	$codescroll_218002_11_218042_11$77333
$LN76@WndProc:
; Line 185
	mov	eax, DWORD PTR _csut_TFX_LastProbe
; Line 191
	mov	edx, DWORD PTR ?hwndEdit@?1??WndProc@@9@9
	mov	ebp, DWORD PTR __imp__SendMessageA@16
	push	0
	push	0
	mov	DWORD PTR [eax], 99			; 00000063H
	mov	ecx, DWORD PTR _csut_TFX_CoverageBuffer
	push	198					; 000000c6H
	push	edx
	mov	BYTE PTR [ecx+99], bl
	call	ebp
	mov	esi, DWORD PTR _wParam$[esp+20]
	mov	edi, DWORD PTR __imp__EnableMenuItem@12
	neg	eax
	sbb	eax, eax
	inc	eax
	push	eax
	push	40007					; 00009c47H
	push	esi
	call	edi
; Line 197
	push	1
	call	DWORD PTR __imp__IsClipboardFormatAvailable@4
	neg	eax
	sbb	eax, eax
	inc	eax
	push	eax
	push	40010					; 00009c4aH
	push	esi
	call	edi
; Line 202
	mov	edx, DWORD PTR ?hwndEdit@?1??WndProc@@9@9
	lea	eax, DWORD PTR _iSelEnd$[esp+24]
	push	eax
	lea	ecx, DWORD PTR _iSelBeg$[esp+28]
	push	ecx
	push	176					; 000000b0H
	push	edx
	call	ebp
; Line 204
	mov	ecx, DWORD PTR _iSelBeg$[esp+24]
	xor	eax, eax
	cmp	ecx, DWORD PTR _iSelEnd$[esp+24]
	sete	al
	mov	ebp, eax
; Line 206
	push	ebp
	push	40008					; 00009c48H
	push	esi
	call	edi
; Line 207
	push	ebp
	push	40009					; 00009c49H
	push	esi
	call	edi
; Line 208
	push	ebp
	push	40011					; 00009c4bH
	push	esi
	call	edi
; Line 209
	mov	edx, DWORD PTR _csut_TFX_LastProbe
	mov	DWORD PTR [edx], 102			; 00000066H
	mov	eax, DWORD PTR _csut_TFX_CoverageBuffer
	mov	BYTE PTR [eax+102], bl
$codescroll_218002_11_218042_11$77333:
; Line 224
	mov	ecx, DWORD PTR _csut_TFX_LastProbe
	pop	ebp
	mov	DWORD PTR [ecx], 210			; 000000d2H
	mov	edx, DWORD PTR _csut_TFX_CoverageBuffer
	pop	edi
	pop	esi
	mov	BYTE PTR [edx+210], bl
; Line 402
	xor	eax, eax
	pop	ebx
; Line 437
	add	esp, 8
	ret	16					; 00000010H
$LN74@WndProc:
; Line 226
	mov	eax, DWORD PTR _csut_TFX_LastProbe
	mov	DWORD PTR [eax], 199			; 000000c7H
	mov	eax, DWORD PTR _csut_TFX_CoverageBuffer
	mov	BYTE PTR [eax+199], bl
	mov	eax, DWORD PTR _csut_TFX_LastProbe
	mov	DWORD PTR [eax], 104			; 00000068H
	mov	eax, DWORD PTR _csut_TFX_CoverageBuffer
; Line 229
	xor	edi, edi
	mov	BYTE PTR [eax+104], bl
	mov	eax, DWORD PTR _csut_TFX_LastProbe
	cmp	esi, edi
	je	$LN89@WndProc
	cmp	dx, 1
	jne	SHORT $LN87@WndProc
	mov	DWORD PTR [eax], 258			; 00000102H
	mov	eax, DWORD PTR _csut_TFX_CoverageBuffer
	mov	BYTE PTR [eax+258], bl
; Line 230
	mov	eax, DWORD PTR _csut_TFX_LastProbe
	mov	DWORD PTR [eax], 110			; 0000006eH
	mov	eax, DWORD PTR _csut_TFX_CoverageBuffer
	mov	BYTE PTR [eax+110], bl
; Line 231
	mov	eax, edx
	shr	eax, 16					; 00000010H
	sub	eax, 1024				; 00000400H
	je	$LN70@WndProc
	sub	eax, 256				; 00000100H
	je	$LN69@WndProc
	sub	eax, 1
	je	SHORT $LN68@WndProc
; Line 242
	mov	eax, DWORD PTR _csut_TFX_LastProbe
	mov	DWORD PTR [eax], 109			; 0000006dH
	mov	eax, DWORD PTR _csut_TFX_CoverageBuffer
	mov	BYTE PTR [eax+109], bl
; Line 243
	mov	eax, DWORD PTR _csut_TFX_LastProbe
	mov	DWORD PTR [eax], 204			; 000000ccH
	mov	eax, DWORD PTR _csut_TFX_CoverageBuffer
$codescroll_218050_16_218061_16$77353:
	mov	BYTE PTR [eax+204], bl
	jmp	$codescroll_217971_6_218254_6$77354
$LN87@WndProc:
; Line 229
	mov	DWORD PTR [eax], 259			; 00000103H
	mov	eax, DWORD PTR _csut_TFX_CoverageBuffer
	mov	BYTE PTR [eax+259], bl
$LN73@WndProc:
; Line 244
	mov	eax, DWORD PTR _csut_TFX_LastProbe
	mov	DWORD PTR [eax], 111			; 0000006fH
	mov	eax, DWORD PTR _csut_TFX_CoverageBuffer
	mov	BYTE PTR [eax+111], bl
; Line 246
	movzx	eax, dx
	add	eax, -40001				; ffff63bfH
	cmp	eax, 17					; 00000011H
	ja	$LN65@WndProc
	jmp	DWORD PTR $LN122@WndProc[eax*4]
$LN89@WndProc:
; Line 229
	mov	DWORD PTR [eax], 260			; 00000104H
	mov	eax, DWORD PTR _csut_TFX_CoverageBuffer
	mov	BYTE PTR [eax+260], bl
	jmp	SHORT $LN73@WndProc
$LN68@WndProc:
; Line 238
	mov	ecx, DWORD PTR _csut_TFX_LastProbe
	mov	DWORD PTR [ecx], 108			; 0000006cH
	mov	edx, DWORD PTR _csut_TFX_CoverageBuffer
	mov	BYTE PTR [edx+108], bl
	jmp	SHORT $codescroll_218057_16$77350
$LN69@WndProc:
; Line 237
	mov	eax, DWORD PTR _csut_TFX_LastProbe
	mov	DWORD PTR [eax], 107			; 0000006bH
	mov	ecx, DWORD PTR _csut_TFX_CoverageBuffer
	mov	BYTE PTR [ecx+107], bl
	mov	edx, DWORD PTR _csut_TFX_LastProbe
	mov	DWORD PTR [edx], 105			; 00000069H
	mov	eax, DWORD PTR _csut_TFX_CoverageBuffer
	mov	BYTE PTR [eax+105], bl
$codescroll_218057_16$77350:
; Line 240
	mov	ecx, DWORD PTR _hwnd$[esp+16]
	push	16					; 00000010H
	push	OFFSET _szAppName
	push	OFFSET ??_C@_0BL@MPBKNKIF@Edit?5control?5out?5of?5space?4?$AA@
	push	ecx
	call	DWORD PTR __imp__MessageBoxA@16
; Line 241
	mov	edx, DWORD PTR _csut_TFX_LastProbe
	mov	DWORD PTR [edx], 212			; 000000d4H
	mov	eax, DWORD PTR _csut_TFX_CoverageBuffer
	pop	edi
	mov	BYTE PTR [eax+212], bl
	pop	esi
; Line 402
	xor	eax, eax
	pop	ebx
; Line 437
	add	esp, 8
	ret	16					; 00000010H
$LN70@WndProc:
; Line 233
	mov	ecx, DWORD PTR _csut_TFX_LastProbe
	mov	DWORD PTR [ecx], 106			; 0000006aH
	mov	edx, DWORD PTR _csut_TFX_CoverageBuffer
	mov	BYTE PTR [edx+106], bl
; Line 235
	mov	eax, DWORD PTR _csut_TFX_LastProbe
	mov	DWORD PTR [eax], 211			; 000000d3H
	mov	ecx, DWORD PTR _csut_TFX_CoverageBuffer
	pop	edi
	pop	esi
	mov	BYTE PTR [ecx+211], bl
	mov	DWORD PTR ?bNeedSave@?1??WndProc@@9@9, 1
; Line 402
	xor	eax, eax
	pop	ebx
; Line 437
	add	esp, 8
	ret	16					; 00000010H
$LN64@WndProc:
; Line 250
	mov	ecx, DWORD PTR _csut_TFX_LastProbe
; Line 251
	mov	esi, DWORD PTR _hwnd$[esp+16]
	mov	DWORD PTR [ecx], 147			; 00000093H
	mov	edx, DWORD PTR _csut_TFX_CoverageBuffer
	mov	BYTE PTR [edx+147], bl
	mov	eax, DWORD PTR _csut_TFX_LastProbe
	mov	DWORD PTR [eax], 112			; 00000070H
	mov	ecx, DWORD PTR _csut_TFX_CoverageBuffer
	mov	BYTE PTR [ecx+112], bl
	cmp	DWORD PTR ?bNeedSave@?1??WndProc@@9@9, edi
	je	$LN93@WndProc
	push	OFFSET ?szTitleName@?1??WndProc@@9@9
	push	esi
	call	_AskAboutSave
	mov	edx, 2
	add	esp, 8
	cmp	dx, ax
	jne	SHORT $LN91@WndProc
	mov	eax, DWORD PTR _csut_TFX_LastProbe
	mov	DWORD PTR [eax], 261			; 00000105H
	mov	ecx, DWORD PTR _csut_TFX_CoverageBuffer
	mov	BYTE PTR [ecx+261], bl
; Line 252
	mov	eax, DWORD PTR _csut_TFX_LastProbe
	mov	DWORD PTR [eax], 113			; 00000071H
	mov	ecx, DWORD PTR _csut_TFX_CoverageBuffer
	mov	BYTE PTR [ecx+113], bl
	mov	edx, DWORD PTR _csut_TFX_LastProbe
	mov	DWORD PTR [edx], 213			; 000000d5H
	mov	eax, DWORD PTR _csut_TFX_CoverageBuffer
	pop	edi
	mov	BYTE PTR [eax+213], bl
	pop	esi
; Line 402
	xor	eax, eax
	pop	ebx
; Line 437
	add	esp, 8
	ret	16					; 00000010H
$LN91@WndProc:
; Line 251
	mov	edx, DWORD PTR _csut_TFX_LastProbe
	mov	DWORD PTR [edx], 262			; 00000106H
	mov	eax, DWORD PTR _csut_TFX_CoverageBuffer
	mov	BYTE PTR [eax+262], bl
$LN63@WndProc:
; Line 252
	mov	ecx, DWORD PTR _csut_TFX_LastProbe
; Line 254
	mov	eax, DWORD PTR ?hwndEdit@?1??WndProc@@9@9
	mov	DWORD PTR [ecx], 114			; 00000072H
	mov	edx, DWORD PTR _csut_TFX_CoverageBuffer
	push	OFFSET ??_C@_01LOCGONAA@?$AA?$AA@
	push	eax
	mov	BYTE PTR [edx+114], bl
	call	DWORD PTR __imp__SetWindowTextA@8
; Line 257
	push	OFFSET ?szTitleName@?1??WndProc@@9@9
	push	esi
	mov	BYTE PTR ?szFileName@?1??WndProc@@9@9, 0
	mov	BYTE PTR ?szTitleName@?1??WndProc@@9@9, 0
	call	_DoCaption
; Line 259
	mov	ecx, DWORD PTR _csut_TFX_LastProbe
	add	esp, 8
	mov	DWORD PTR ?bNeedSave@?1??WndProc@@9@9, edi
	mov	DWORD PTR [ecx], 214			; 000000d6H
	mov	edx, DWORD PTR _csut_TFX_CoverageBuffer
	pop	edi
	pop	esi
	mov	BYTE PTR [edx+214], bl
; Line 402
	xor	eax, eax
	pop	ebx
; Line 437
	add	esp, 8
	ret	16					; 00000010H
$LN93@WndProc:
; Line 251
	mov	ecx, DWORD PTR _csut_TFX_LastProbe
	mov	DWORD PTR [ecx], 263			; 00000107H
	mov	edx, DWORD PTR _csut_TFX_CoverageBuffer
	mov	BYTE PTR [edx+263], bl
	jmp	$LN63@WndProc
$LN61@WndProc:
; Line 261
	mov	eax, DWORD PTR _csut_TFX_LastProbe
; Line 262
	mov	esi, DWORD PTR _hwnd$[esp+16]
	mov	DWORD PTR [eax], 148			; 00000094H
	mov	ecx, DWORD PTR _csut_TFX_CoverageBuffer
	mov	BYTE PTR [ecx+148], bl
	mov	edx, DWORD PTR _csut_TFX_LastProbe
	mov	DWORD PTR [edx], 115			; 00000073H
	mov	eax, DWORD PTR _csut_TFX_CoverageBuffer
	mov	BYTE PTR [eax+115], bl
	cmp	DWORD PTR ?bNeedSave@?1??WndProc@@9@9, edi
	je	$LN97@WndProc
	push	OFFSET ?szTitleName@?1??WndProc@@9@9
	push	esi
	call	_AskAboutSave
	mov	ecx, 2
	add	esp, 8
	cmp	cx, ax
	jne	SHORT $LN95@WndProc
	mov	edx, DWORD PTR _csut_TFX_LastProbe
	mov	DWORD PTR [edx], 264			; 00000108H
	mov	eax, DWORD PTR _csut_TFX_CoverageBuffer
	mov	BYTE PTR [eax+264], bl
; Line 263
	mov	edx, DWORD PTR _csut_TFX_LastProbe
	mov	DWORD PTR [edx], 116			; 00000074H
	mov	eax, DWORD PTR _csut_TFX_CoverageBuffer
	mov	BYTE PTR [eax+116], bl
	mov	ecx, DWORD PTR _csut_TFX_LastProbe
	mov	DWORD PTR [ecx], 215			; 000000d7H
	mov	edx, DWORD PTR _csut_TFX_CoverageBuffer
	pop	edi
	pop	esi
	mov	BYTE PTR [edx+215], bl
; Line 402
	xor	eax, eax
	pop	ebx
; Line 437
	add	esp, 8
	ret	16					; 00000010H
$LN95@WndProc:
; Line 262
	mov	ecx, DWORD PTR _csut_TFX_LastProbe
	mov	DWORD PTR [ecx], 265			; 00000109H
	mov	edx, DWORD PTR _csut_TFX_CoverageBuffer
	mov	BYTE PTR [edx+265], bl
$LN60@WndProc:
; Line 263
	mov	eax, DWORD PTR _csut_TFX_LastProbe
; Line 265
	push	OFFSET ?szTitleName@?1??WndProc@@9@9
	mov	DWORD PTR [eax], 117			; 00000075H
	mov	ecx, DWORD PTR _csut_TFX_CoverageBuffer
	push	OFFSET ?szFileName@?1??WndProc@@9@9
	push	esi
	mov	BYTE PTR [ecx+117], bl
	call	_PopFileOpenDlg
; Line 266
	mov	edx, DWORD PTR _csut_TFX_LastProbe
	add	esp, 12					; 0000000cH
	test	eax, eax
	je	$LN58@WndProc
; Line 267
	mov	ecx, DWORD PTR ?hwndEdit@?1??WndProc@@9@9
	mov	DWORD PTR [edx], 121			; 00000079H
	mov	eax, DWORD PTR _csut_TFX_CoverageBuffer
	push	OFFSET ?szFileName@?1??WndProc@@9@9
	push	ecx
	mov	BYTE PTR [eax+121], bl
	call	_PopFileRead
	add	esp, 8
	test	eax, eax
	jne	SHORT $LN57@WndProc
; Line 268
	mov	edx, DWORD PTR _csut_TFX_LastProbe
; Line 270
	push	OFFSET ?szTitleName@?1??WndProc@@9@9
	mov	DWORD PTR [edx], 119			; 00000077H
	mov	eax, DWORD PTR _csut_TFX_CoverageBuffer
	push	OFFSET ??_C@_0BI@FEKNEDNN@Could?5not?5read?5file?5?$CFs?$CB?$AA@
	push	esi
	mov	BYTE PTR [eax+119], bl
	call	_OkMessage
; Line 272
	mov	ecx, DWORD PTR _csut_TFX_LastProbe
	mov	BYTE PTR ?szFileName@?1??WndProc@@9@9, 0
	mov	BYTE PTR ?szTitleName@?1??WndProc@@9@9, 0
	mov	DWORD PTR [ecx], 118			; 00000076H
	mov	edx, DWORD PTR _csut_TFX_CoverageBuffer
	add	esp, 12					; 0000000cH
	mov	BYTE PTR [edx+118], bl
	jmp	SHORT $LN55@WndProc
$LN97@WndProc:
; Line 262
	mov	eax, DWORD PTR _csut_TFX_LastProbe
	mov	DWORD PTR [eax], 266			; 0000010aH
	mov	ecx, DWORD PTR _csut_TFX_CoverageBuffer
	mov	BYTE PTR [ecx+266], bl
	jmp	$LN60@WndProc
$LN57@WndProc:
; Line 273
	mov	eax, DWORD PTR _csut_TFX_LastProbe
	mov	DWORD PTR [eax], 120			; 00000078H
	mov	ecx, DWORD PTR _csut_TFX_CoverageBuffer
	mov	BYTE PTR [ecx+120], bl
	jmp	SHORT $LN55@WndProc
$LN58@WndProc:
; Line 274
	mov	DWORD PTR [edx], 122			; 0000007aH
	mov	eax, DWORD PTR _csut_TFX_CoverageBuffer
	mov	BYTE PTR [eax+122], bl
$LN55@WndProc:
; Line 276
	push	OFFSET ?szTitleName@?1??WndProc@@9@9
	push	esi
	call	_DoCaption
; Line 278
	mov	ecx, DWORD PTR _csut_TFX_LastProbe
	add	esp, 8
	mov	DWORD PTR ?bNeedSave@?1??WndProc@@9@9, edi
	mov	DWORD PTR [ecx], 216			; 000000d8H
	mov	edx, DWORD PTR _csut_TFX_CoverageBuffer
	pop	edi
	pop	esi
	mov	BYTE PTR [edx+216], bl
; Line 402
	xor	eax, eax
	pop	ebx
; Line 437
	add	esp, 8
	ret	16					; 00000010H
$LN54@WndProc:
; Line 280
	mov	eax, DWORD PTR _csut_TFX_LastProbe
	mov	DWORD PTR [eax], 149			; 00000095H
	mov	ecx, DWORD PTR _csut_TFX_CoverageBuffer
	mov	BYTE PTR [ecx+149], bl
	mov	edx, DWORD PTR _csut_TFX_LastProbe
	mov	DWORD PTR [edx], 123			; 0000007bH
	mov	eax, DWORD PTR _csut_TFX_CoverageBuffer
	mov	BYTE PTR [eax+123], bl
; Line 281
	cmp	BYTE PTR ?szFileName@?1??WndProc@@9@9, 0
; Line 282
	mov	ecx, DWORD PTR _csut_TFX_LastProbe
	je	$LN53@WndProc
; Line 283
	mov	eax, DWORD PTR ?hwndEdit@?1??WndProc@@9@9
	mov	DWORD PTR [ecx], 126			; 0000007eH
	mov	edx, DWORD PTR _csut_TFX_CoverageBuffer
	push	OFFSET ?szFileName@?1??WndProc@@9@9
	push	eax
	mov	BYTE PTR [edx+126], bl
	call	_PopFileWrite
	add	esp, 8
	test	eax, eax
	je	SHORT $LN52@WndProc
; Line 284
	mov	ecx, DWORD PTR _csut_TFX_LastProbe
	mov	DWORD PTR [ecx], 124			; 0000007cH
	mov	edx, DWORD PTR _csut_TFX_CoverageBuffer
	mov	BYTE PTR [edx+124], bl
; Line 286
	mov	eax, DWORD PTR _csut_TFX_LastProbe
	mov	DWORD PTR [eax], 217			; 000000d9H
	mov	ecx, DWORD PTR _csut_TFX_CoverageBuffer
	mov	DWORD PTR ?bNeedSave@?1??WndProc@@9@9, edi
	pop	edi
	pop	esi
	mov	BYTE PTR [ecx+217], bl
	mov	eax, 1
	pop	ebx
; Line 437
	add	esp, 8
	ret	16					; 00000010H
$LN52@WndProc:
; Line 289
	mov	edx, DWORD PTR _csut_TFX_LastProbe
; Line 291
	mov	ecx, DWORD PTR _hwnd$[esp+16]
	push	OFFSET ?szTitleName@?1??WndProc@@9@9
	mov	DWORD PTR [edx], 125			; 0000007dH
	mov	eax, DWORD PTR _csut_TFX_CoverageBuffer
	push	OFFSET ??_C@_0BI@IPPNKPHC@Could?5not?5write?5file?5?$CFs?$AA@
	push	ecx
	mov	BYTE PTR [eax+125], bl
	call	_OkMessage
; Line 292
	mov	edx, DWORD PTR _csut_TFX_LastProbe
	add	esp, 12					; 0000000cH
	mov	DWORD PTR [edx], 218			; 000000daH
	mov	eax, DWORD PTR _csut_TFX_CoverageBuffer
	pop	edi
	mov	BYTE PTR [eax+218], bl
	pop	esi
; Line 402
	xor	eax, eax
	pop	ebx
; Line 437
	add	esp, 8
	ret	16					; 00000010H
$LN53@WndProc:
; Line 294
	mov	DWORD PTR [ecx], 127			; 0000007fH
	mov	edx, DWORD PTR _csut_TFX_CoverageBuffer
	mov	BYTE PTR [edx+127], bl
; Line 296
	jmp	SHORT $codescroll_218115_11$77380
$LN49@WndProc:
	mov	eax, DWORD PTR _csut_TFX_LastProbe
	mov	DWORD PTR [eax], 150			; 00000096H
	mov	ecx, DWORD PTR _csut_TFX_CoverageBuffer
	mov	BYTE PTR [ecx+150], bl
$codescroll_218115_11$77380:
	mov	edx, DWORD PTR _csut_TFX_LastProbe
; Line 297
	mov	esi, DWORD PTR _hwnd$[esp+16]
	push	OFFSET ?szTitleName@?1??WndProc@@9@9
	mov	DWORD PTR [edx], 128			; 00000080H
	mov	eax, DWORD PTR _csut_TFX_CoverageBuffer
	push	OFFSET ?szFileName@?1??WndProc@@9@9
	push	esi
	mov	BYTE PTR [eax+128], bl
	call	_PopFileSaveDlg
	add	esp, 12					; 0000000cH
	test	eax, eax
	je	$LN48@WndProc
; Line 298
	mov	ecx, DWORD PTR _csut_TFX_LastProbe
	mov	DWORD PTR [ecx], 132			; 00000084H
	mov	edx, DWORD PTR _csut_TFX_CoverageBuffer
; Line 299
	push	OFFSET ?szTitleName@?1??WndProc@@9@9
	push	esi
	mov	BYTE PTR [edx+132], bl
	call	_DoCaption
	mov	eax, DWORD PTR _csut_TFX_LastProbe
; Line 301
	mov	edx, DWORD PTR ?hwndEdit@?1??WndProc@@9@9
	mov	DWORD PTR [eax], 129			; 00000081H
	mov	ecx, DWORD PTR _csut_TFX_CoverageBuffer
	push	OFFSET ?szFileName@?1??WndProc@@9@9
	push	edx
	mov	BYTE PTR [ecx+129], bl
	call	_PopFileWrite
	add	esp, 16					; 00000010H
	test	eax, eax
	je	SHORT $LN47@WndProc
; Line 302
	mov	eax, DWORD PTR _csut_TFX_LastProbe
	mov	DWORD PTR [eax], 130			; 00000082H
	mov	ecx, DWORD PTR _csut_TFX_CoverageBuffer
	mov	BYTE PTR [ecx+130], bl
; Line 304
	mov	edx, DWORD PTR _csut_TFX_LastProbe
	mov	DWORD PTR ?bNeedSave@?1??WndProc@@9@9, edi
	mov	DWORD PTR [edx], 219			; 000000dbH
	mov	eax, DWORD PTR _csut_TFX_CoverageBuffer
	pop	edi
	mov	BYTE PTR [eax+219], bl
	pop	esi
	mov	eax, 1
	pop	ebx
; Line 437
	add	esp, 8
	ret	16					; 00000010H
$LN47@WndProc:
; Line 307
	mov	ecx, DWORD PTR _csut_TFX_LastProbe
; Line 309
	push	OFFSET ?szTitleName@?1??WndProc@@9@9
	mov	DWORD PTR [ecx], 131			; 00000083H
	mov	edx, DWORD PTR _csut_TFX_CoverageBuffer
	push	OFFSET ??_C@_0BI@IPPNKPHC@Could?5not?5write?5file?5?$CFs?$AA@
	push	esi
	mov	BYTE PTR [edx+131], bl
	call	_OkMessage
; Line 310
	mov	eax, DWORD PTR _csut_TFX_LastProbe
	add	esp, 12					; 0000000cH
	mov	DWORD PTR [eax], 220			; 000000dcH
	mov	ecx, DWORD PTR _csut_TFX_CoverageBuffer
	pop	edi
	pop	esi
	mov	BYTE PTR [ecx+220], bl
; Line 402
	xor	eax, eax
	pop	ebx
; Line 437
	add	esp, 8
	ret	16					; 00000010H
$LN48@WndProc:
; Line 312
	mov	edx, DWORD PTR _csut_TFX_LastProbe
	mov	DWORD PTR [edx], 133			; 00000085H
	mov	eax, DWORD PTR _csut_TFX_CoverageBuffer
	mov	BYTE PTR [eax+133], bl
; Line 313
	mov	ecx, DWORD PTR _csut_TFX_LastProbe
	mov	DWORD PTR [ecx], 221			; 000000ddH
	mov	edx, DWORD PTR _csut_TFX_CoverageBuffer
	pop	edi
	pop	esi
	mov	BYTE PTR [edx+221], bl
; Line 402
	xor	eax, eax
	pop	ebx
; Line 437
	add	esp, 8
	ret	16					; 00000010H
$LN44@WndProc:
; Line 315
	mov	eax, DWORD PTR _csut_TFX_LastProbe
; Line 316
	mov	esi, DWORD PTR _hwnd$[esp+16]
	mov	DWORD PTR [eax], 151			; 00000097H
	mov	ecx, DWORD PTR _csut_TFX_CoverageBuffer
	mov	BYTE PTR [ecx+151], bl
	mov	edx, DWORD PTR _csut_TFX_LastProbe
	mov	ecx, DWORD PTR ?hwndEdit@?1??WndProc@@9@9
	push	OFFSET ?szTitleName@?1??WndProc@@9@9
	mov	DWORD PTR [edx], 134			; 00000086H
	mov	edx, DWORD PTR ?hInst@?1??WndProc@@9@9
	mov	eax, DWORD PTR _csut_TFX_CoverageBuffer
	push	ecx
	push	esi
	push	edx
	mov	BYTE PTR [eax+134], bl
	call	_PopPrntPrintFile
	add	esp, 16					; 00000010H
	test	eax, eax
	jne	SHORT $LN43@WndProc
; Line 317
	mov	eax, DWORD PTR _csut_TFX_LastProbe
; Line 318
	push	OFFSET ?szTitleName@?1??WndProc@@9@9
	mov	DWORD PTR [eax], 136			; 00000088H
	mov	ecx, DWORD PTR _csut_TFX_CoverageBuffer
	push	OFFSET ??_C@_0BI@GOAFHDCL@Could?5not?5print?5file?5?$CFs?$AA@
	push	esi
	mov	BYTE PTR [ecx+136], bl
	call	_OkMessage
	mov	edx, DWORD PTR _csut_TFX_LastProbe
	mov	DWORD PTR [edx], 135			; 00000087H
	mov	eax, DWORD PTR _csut_TFX_CoverageBuffer
	add	esp, 12					; 0000000cH
	mov	BYTE PTR [eax+135], bl
	jmp	SHORT $LN42@WndProc
$LN43@WndProc:
	mov	ecx, DWORD PTR _csut_TFX_LastProbe
	mov	DWORD PTR [ecx], 137			; 00000089H
	mov	edx, DWORD PTR _csut_TFX_CoverageBuffer
	mov	BYTE PTR [edx+137], bl
$LN42@WndProc:
; Line 319
	mov	eax, DWORD PTR _csut_TFX_LastProbe
	mov	DWORD PTR [eax], 222			; 000000deH
	mov	ecx, DWORD PTR _csut_TFX_CoverageBuffer
	pop	edi
	pop	esi
	mov	BYTE PTR [ecx+222], bl
; Line 402
	xor	eax, eax
	pop	ebx
; Line 437
	add	esp, 8
	ret	16					; 00000010H
$LN41@WndProc:
; Line 321
	mov	edx, DWORD PTR _csut_TFX_LastProbe
; Line 322
	mov	ecx, DWORD PTR _hwnd$[esp+16]
	push	edi
	push	edi
	mov	DWORD PTR [edx], 152			; 00000098H
	mov	eax, DWORD PTR _csut_TFX_CoverageBuffer
	push	16					; 00000010H
	push	ecx
	mov	BYTE PTR [eax+152], bl
	call	DWORD PTR __imp__SendMessageA@16
; Line 323
	mov	edx, DWORD PTR _csut_TFX_LastProbe
	mov	DWORD PTR [edx], 223			; 000000dfH
	mov	eax, DWORD PTR _csut_TFX_CoverageBuffer
	pop	edi
	mov	BYTE PTR [eax+223], bl
	pop	esi
; Line 402
	xor	eax, eax
	pop	ebx
; Line 437
	add	esp, 8
	ret	16					; 00000010H
$LN40@WndProc:
; Line 327
	mov	ecx, DWORD PTR _csut_TFX_LastProbe
; Line 328
	mov	eax, DWORD PTR ?hwndEdit@?1??WndProc@@9@9
	push	edi
	push	edi
	mov	DWORD PTR [ecx], 153			; 00000099H
	mov	edx, DWORD PTR _csut_TFX_CoverageBuffer
	push	772					; 00000304H
	push	eax
	mov	BYTE PTR [edx+153], bl
	call	DWORD PTR __imp__SendMessageA@16
; Line 329
	mov	ecx, DWORD PTR _csut_TFX_LastProbe
	mov	DWORD PTR [ecx], 224			; 000000e0H
	mov	edx, DWORD PTR _csut_TFX_CoverageBuffer
	pop	edi
	pop	esi
	mov	BYTE PTR [edx+224], bl
; Line 402
	xor	eax, eax
	pop	ebx
; Line 437
	add	esp, 8
	ret	16					; 00000010H
$LN39@WndProc:
; Line 331
	mov	eax, DWORD PTR _csut_TFX_LastProbe
; Line 332
	mov	edx, DWORD PTR ?hwndEdit@?1??WndProc@@9@9
	push	edi
	push	edi
	mov	DWORD PTR [eax], 154			; 0000009aH
	mov	ecx, DWORD PTR _csut_TFX_CoverageBuffer
	push	768					; 00000300H
	push	edx
	mov	BYTE PTR [ecx+154], bl
	call	DWORD PTR __imp__SendMessageA@16
; Line 333
	mov	eax, DWORD PTR _csut_TFX_LastProbe
	mov	DWORD PTR [eax], 225			; 000000e1H
	mov	ecx, DWORD PTR _csut_TFX_CoverageBuffer
	pop	edi
	pop	esi
	mov	BYTE PTR [ecx+225], bl
; Line 402
	xor	eax, eax
	pop	ebx
; Line 437
	add	esp, 8
	ret	16					; 00000010H
$LN38@WndProc:
; Line 335
	mov	edx, DWORD PTR _csut_TFX_LastProbe
; Line 336
	mov	ecx, DWORD PTR ?hwndEdit@?1??WndProc@@9@9
	push	edi
	push	edi
	mov	DWORD PTR [edx], 155			; 0000009bH
	mov	eax, DWORD PTR _csut_TFX_CoverageBuffer
	push	769					; 00000301H
	push	ecx
	mov	BYTE PTR [eax+155], bl
	call	DWORD PTR __imp__SendMessageA@16
; Line 337
	mov	edx, DWORD PTR _csut_TFX_LastProbe
	mov	DWORD PTR [edx], 226			; 000000e2H
	mov	eax, DWORD PTR _csut_TFX_CoverageBuffer
	pop	edi
	mov	BYTE PTR [eax+226], bl
	pop	esi
; Line 402
	xor	eax, eax
	pop	ebx
; Line 437
	add	esp, 8
	ret	16					; 00000010H
$LN37@WndProc:
; Line 339
	mov	ecx, DWORD PTR _csut_TFX_LastProbe
; Line 340
	mov	eax, DWORD PTR ?hwndEdit@?1??WndProc@@9@9
	push	edi
	push	edi
	mov	DWORD PTR [ecx], 156			; 0000009cH
	mov	edx, DWORD PTR _csut_TFX_CoverageBuffer
	push	770					; 00000302H
	push	eax
	mov	BYTE PTR [edx+156], bl
	call	DWORD PTR __imp__SendMessageA@16
; Line 341
	mov	ecx, DWORD PTR _csut_TFX_LastProbe
	mov	DWORD PTR [ecx], 227			; 000000e3H
	mov	edx, DWORD PTR _csut_TFX_CoverageBuffer
	pop	edi
	pop	esi
	mov	BYTE PTR [edx+227], bl
; Line 402
	xor	eax, eax
	pop	ebx
; Line 437
	add	esp, 8
	ret	16					; 00000010H
$LN36@WndProc:
; Line 343
	mov	eax, DWORD PTR _csut_TFX_LastProbe
; Line 344
	mov	edx, DWORD PTR ?hwndEdit@?1??WndProc@@9@9
	push	edi
	push	edi
	mov	DWORD PTR [eax], 157			; 0000009dH
	mov	ecx, DWORD PTR _csut_TFX_CoverageBuffer
	push	771					; 00000303H
	push	edx
	mov	BYTE PTR [ecx+157], bl
	call	DWORD PTR __imp__SendMessageA@16
; Line 345
	mov	eax, DWORD PTR _csut_TFX_LastProbe
	mov	DWORD PTR [eax], 228			; 000000e4H
	mov	ecx, DWORD PTR _csut_TFX_CoverageBuffer
	pop	edi
	pop	esi
	mov	BYTE PTR [ecx+228], bl
; Line 402
	xor	eax, eax
	pop	ebx
; Line 437
	add	esp, 8
	ret	16					; 00000010H
$LN35@WndProc:
; Line 347
	mov	edx, DWORD PTR _csut_TFX_LastProbe
; Line 348
	mov	ecx, DWORD PTR ?hwndEdit@?1??WndProc@@9@9
	push	-1
	push	edi
	mov	DWORD PTR [edx], 158			; 0000009eH
	mov	eax, DWORD PTR _csut_TFX_CoverageBuffer
	push	177					; 000000b1H
	push	ecx
	mov	BYTE PTR [eax+158], bl
	call	DWORD PTR __imp__SendMessageA@16
; Line 349
	mov	edx, DWORD PTR _csut_TFX_LastProbe
	mov	DWORD PTR [edx], 229			; 000000e5H
	mov	eax, DWORD PTR _csut_TFX_CoverageBuffer
	pop	edi
	mov	BYTE PTR [eax+229], bl
	pop	esi
; Line 402
	xor	eax, eax
	pop	ebx
; Line 437
	add	esp, 8
	ret	16					; 00000010H
$LN34@WndProc:
; Line 353
	mov	ecx, DWORD PTR _csut_TFX_LastProbe
; Line 354
	mov	eax, DWORD PTR ?hwndEdit@?1??WndProc@@9@9
	push	OFFSET ?iOffset@?1??WndProc@@9@9
	push	edi
	mov	DWORD PTR [ecx], 159			; 0000009fH
	mov	edx, DWORD PTR _csut_TFX_CoverageBuffer
	push	176					; 000000b0H
	push	eax
	mov	BYTE PTR [edx+159], bl
	call	DWORD PTR __imp__SendMessageA@16
; Line 355
	mov	ecx, DWORD PTR _hwnd$[esp+16]
	push	ecx
	call	_PopFindFindDlg
; Line 356
	mov	edx, DWORD PTR _csut_TFX_LastProbe
	add	esp, 4
	mov	DWORD PTR _hDlgModeless, eax
	mov	DWORD PTR [edx], 230			; 000000e6H
	mov	eax, DWORD PTR _csut_TFX_CoverageBuffer
	pop	edi
	mov	BYTE PTR [eax+230], bl
	pop	esi
; Line 402
	xor	eax, eax
	pop	ebx
; Line 437
	add	esp, 8
	ret	16					; 00000010H
$LN33@WndProc:
; Line 358
	mov	ecx, DWORD PTR _csut_TFX_LastProbe
; Line 359
	mov	eax, DWORD PTR ?hwndEdit@?1??WndProc@@9@9
	push	OFFSET ?iOffset@?1??WndProc@@9@9
	push	edi
	mov	DWORD PTR [ecx], 160			; 000000a0H
	mov	edx, DWORD PTR _csut_TFX_CoverageBuffer
	push	176					; 000000b0H
	push	eax
	mov	BYTE PTR [edx+160], bl
	call	DWORD PTR __imp__SendMessageA@16
	mov	ecx, DWORD PTR _csut_TFX_LastProbe
	mov	DWORD PTR [ecx], 138			; 0000008aH
	mov	edx, DWORD PTR _csut_TFX_CoverageBuffer
	mov	BYTE PTR [edx+138], bl
; Line 361
	call	_PopFindValidFind
	test	eax, eax
	je	SHORT $LN32@WndProc
; Line 362
	mov	eax, DWORD PTR _csut_TFX_LastProbe
	mov	edx, DWORD PTR ?hwndEdit@?1??WndProc@@9@9
	mov	DWORD PTR [eax], 141			; 0000008dH
	mov	ecx, DWORD PTR _csut_TFX_CoverageBuffer
	push	OFFSET ?iOffset@?1??WndProc@@9@9
	push	edx
	mov	BYTE PTR [ecx+141], bl
	call	_PopFindNextText
	mov	eax, DWORD PTR _csut_TFX_LastProbe
	mov	DWORD PTR [eax], 139			; 0000008bH
	mov	ecx, DWORD PTR _csut_TFX_CoverageBuffer
	add	esp, 8
	mov	BYTE PTR [ecx+139], bl
; Line 363
	jmp	SHORT $LN31@WndProc
$LN32@WndProc:
; Line 364
	mov	edx, DWORD PTR _csut_TFX_LastProbe
	mov	ecx, DWORD PTR _hwnd$[esp+16]
	mov	DWORD PTR [edx], 142			; 0000008eH
	mov	eax, DWORD PTR _csut_TFX_CoverageBuffer
	push	ecx
	mov	BYTE PTR [eax+142], bl
	call	_PopFindFindDlg
	mov	edx, DWORD PTR _csut_TFX_LastProbe
	mov	DWORD PTR [edx], 140			; 0000008cH
	mov	DWORD PTR _hDlgModeless, eax
	mov	eax, DWORD PTR _csut_TFX_CoverageBuffer
	add	esp, 4
	mov	BYTE PTR [eax+140], bl
$LN31@WndProc:
; Line 366
	mov	ecx, DWORD PTR _csut_TFX_LastProbe
	mov	DWORD PTR [ecx], 231			; 000000e7H
	mov	edx, DWORD PTR _csut_TFX_CoverageBuffer
	pop	edi
	pop	esi
	mov	BYTE PTR [edx+231], bl
; Line 402
	xor	eax, eax
	pop	ebx
; Line 437
	add	esp, 8
	ret	16					; 00000010H
$LN30@WndProc:
; Line 368
	mov	eax, DWORD PTR _csut_TFX_LastProbe
; Line 369
	mov	edx, DWORD PTR ?hwndEdit@?1??WndProc@@9@9
	push	OFFSET ?iOffset@?1??WndProc@@9@9
	push	edi
	mov	DWORD PTR [eax], 161			; 000000a1H
	mov	ecx, DWORD PTR _csut_TFX_CoverageBuffer
	push	176					; 000000b0H
	push	edx
	mov	BYTE PTR [ecx+161], bl
	call	DWORD PTR __imp__SendMessageA@16
; Line 370
	mov	eax, DWORD PTR _hwnd$[esp+16]
	push	eax
	call	_PopFindReplaceDlg
; Line 371
	mov	ecx, DWORD PTR _csut_TFX_LastProbe
	add	esp, 4
	mov	DWORD PTR [ecx], 232			; 000000e8H
	mov	edx, DWORD PTR _csut_TFX_CoverageBuffer
	pop	edi
	pop	esi
	mov	DWORD PTR _hDlgModeless, eax
	mov	BYTE PTR [edx+232], bl
; Line 402
	xor	eax, eax
	pop	ebx
; Line 437
	add	esp, 8
	ret	16					; 00000010H
$LN29@WndProc:
; Line 373
	mov	eax, DWORD PTR _csut_TFX_LastProbe
	mov	DWORD PTR [eax], 162			; 000000a2H
	mov	ecx, DWORD PTR _csut_TFX_CoverageBuffer
	mov	BYTE PTR [ecx+162], bl
	mov	edx, DWORD PTR _csut_TFX_LastProbe
; Line 374
	mov	ecx, DWORD PTR _hwnd$[esp+16]
	mov	DWORD PTR [edx], 143			; 0000008fH
	mov	eax, DWORD PTR _csut_TFX_CoverageBuffer
	push	ecx
	mov	BYTE PTR [eax+143], bl
	call	_PopFontChooseFont
	add	esp, 4
	test	eax, eax
	je	SHORT $LN28@WndProc
; Line 375
	mov	edx, DWORD PTR _csut_TFX_LastProbe
	mov	ecx, DWORD PTR ?hwndEdit@?1??WndProc@@9@9
	mov	DWORD PTR [edx], 145			; 00000091H
	mov	eax, DWORD PTR _csut_TFX_CoverageBuffer
	push	ecx
	mov	BYTE PTR [eax+145], bl
	call	_PopFontSetFont
	mov	edx, DWORD PTR _csut_TFX_LastProbe
	mov	DWORD PTR [edx], 144			; 00000090H
	mov	eax, DWORD PTR _csut_TFX_CoverageBuffer
	add	esp, 4
	mov	BYTE PTR [eax+144], bl
	jmp	SHORT $LN27@WndProc
$LN28@WndProc:
	mov	ecx, DWORD PTR _csut_TFX_LastProbe
	mov	DWORD PTR [ecx], 146			; 00000092H
	mov	edx, DWORD PTR _csut_TFX_CoverageBuffer
	mov	BYTE PTR [edx+146], bl
$LN27@WndProc:
; Line 377
	mov	eax, DWORD PTR _csut_TFX_LastProbe
	mov	DWORD PTR [eax], 233			; 000000e9H
	mov	ecx, DWORD PTR _csut_TFX_CoverageBuffer
	pop	edi
	pop	esi
	mov	BYTE PTR [ecx+233], bl
; Line 402
	xor	eax, eax
	pop	ebx
; Line 437
	add	esp, 8
	ret	16					; 00000010H
$LN26@WndProc:
; Line 381
	mov	edx, DWORD PTR _csut_TFX_LastProbe
; Line 383
	mov	ecx, DWORD PTR _hwnd$[esp+16]
	push	OFFSET ??_C@_01LOCGONAA@?$AA?$AA@
	mov	DWORD PTR [edx], 163			; 000000a3H
	mov	eax, DWORD PTR _csut_TFX_CoverageBuffer
	push	OFFSET ??_C@_0BK@CODGMOHH@Help?5not?5yet?5implemented?$CB?$AA@
	push	ecx
	mov	BYTE PTR [eax+163], bl
	call	_OkMessage
; Line 384
	mov	edx, DWORD PTR _csut_TFX_LastProbe
	add	esp, 12					; 0000000cH
	mov	DWORD PTR [edx], 234			; 000000eaH
	mov	eax, DWORD PTR _csut_TFX_CoverageBuffer
	pop	edi
	mov	BYTE PTR [eax+234], bl
	pop	esi
; Line 402
	xor	eax, eax
	pop	ebx
; Line 437
	add	esp, 8
	ret	16					; 00000010H
$LN25@WndProc:
; Line 386
	mov	ecx, DWORD PTR _csut_TFX_LastProbe
; Line 387
	mov	eax, DWORD PTR _hwnd$[esp+16]
	push	edi
	push	OFFSET _AboutDlgProc@16
	mov	DWORD PTR [ecx], 164			; 000000a4H
	mov	ecx, DWORD PTR ?hInst@?1??WndProc@@9@9
	mov	edx, DWORD PTR _csut_TFX_CoverageBuffer
	push	eax
	push	OFFSET ??_C@_08PNOCFCPH@AboutBox?$AA@
	push	ecx
	mov	BYTE PTR [edx+164], bl
	call	DWORD PTR __imp__DialogBoxParamA@20
; Line 388
	mov	edx, DWORD PTR _csut_TFX_LastProbe
	mov	DWORD PTR [edx], 235			; 000000ebH
	mov	eax, DWORD PTR _csut_TFX_CoverageBuffer
	pop	edi
	mov	BYTE PTR [eax+235], bl
	pop	esi
; Line 402
	xor	eax, eax
	pop	ebx
; Line 437
	add	esp, 8
	ret	16					; 00000010H
$LN65@WndProc:
; Line 389
	mov	eax, DWORD PTR _csut_TFX_LastProbe
	mov	DWORD PTR [eax], 165			; 000000a5H
	mov	eax, DWORD PTR _csut_TFX_CoverageBuffer
	mov	BYTE PTR [eax+165], bl
; Line 390
	mov	eax, DWORD PTR _csut_TFX_LastProbe
	mov	DWORD PTR [eax], 205			; 000000cdH
	mov	eax, DWORD PTR _csut_TFX_CoverageBuffer
$codescroll_218065_11_218208_11$77412:
	mov	BYTE PTR [eax+205], bl
$codescroll_217971_6_218254_6$77354:
; Line 436
	push	esi
	push	edx
	push	ecx
	mov	ecx, DWORD PTR _hwnd$[esp+28]
	push	ecx
	call	DWORD PTR __imp__DefWindowProcA@16
	mov	edx, DWORD PTR _csut_TFX_LastProbe
	mov	DWORD PTR [edx], 241			; 000000f1H
	mov	ecx, DWORD PTR _csut_TFX_CoverageBuffer
	pop	edi
	pop	esi
	mov	BYTE PTR [ecx+241], bl
	pop	ebx
; Line 437
	add	esp, 8
	ret	16					; 00000010H
$LN21@WndProc:
; Line 399
	cmp	DWORD PTR ?bNeedSave@?1??WndProc@@9@9, 0
	mov	edx, DWORD PTR _csut_TFX_LastProbe
	mov	DWORD PTR [edx], 201			; 000000c9H
	mov	eax, DWORD PTR _csut_TFX_CoverageBuffer
	mov	BYTE PTR [eax+201], bl
	mov	ecx, DWORD PTR _csut_TFX_LastProbe
	mov	DWORD PTR [ecx], 170			; 000000aaH
	mov	edx, DWORD PTR _csut_TFX_CoverageBuffer
	mov	BYTE PTR [edx+170], bl
	je	$LN105@WndProc
	mov	eax, DWORD PTR _hwnd$[esp+16]
	push	OFFSET ?szTitleName@?1??WndProc@@9@9
	push	eax
	call	_AskAboutSave
	mov	ecx, 2
	add	esp, 8
	cmp	cx, ax
	je	SHORT $LN103@WndProc
	mov	edx, DWORD PTR _csut_TFX_LastProbe
	mov	DWORD PTR [edx], 270			; 0000010eH
	mov	eax, DWORD PTR _csut_TFX_CoverageBuffer
	mov	BYTE PTR [eax+270], bl
	jmp	SHORT $LN119@WndProc
$LN103@WndProc:
	mov	ecx, DWORD PTR _csut_TFX_LastProbe
	mov	DWORD PTR [ecx], 271			; 0000010fH
	mov	edx, DWORD PTR _csut_TFX_CoverageBuffer
	mov	BYTE PTR [edx+271], bl
; Line 400
	mov	eax, DWORD PTR _csut_TFX_LastProbe
	mov	DWORD PTR [eax], 172			; 000000acH
	mov	ecx, DWORD PTR _csut_TFX_CoverageBuffer
	mov	BYTE PTR [ecx+172], bl
; Line 402
	mov	edx, DWORD PTR _csut_TFX_LastProbe
	mov	DWORD PTR [edx], 238			; 000000eeH
	mov	eax, DWORD PTR _csut_TFX_CoverageBuffer
	pop	edi
	mov	BYTE PTR [eax+238], bl
	pop	esi
	xor	eax, eax
	pop	ebx
; Line 437
	add	esp, 8
	ret	16					; 00000010H
$LN105@WndProc:
; Line 399
	mov	eax, DWORD PTR _csut_TFX_LastProbe
	mov	DWORD PTR [eax], 272			; 00000110H
	mov	ecx, DWORD PTR _csut_TFX_CoverageBuffer
	mov	BYTE PTR [ecx+272], bl
$LN119@WndProc:
; Line 400
	mov	edx, DWORD PTR _csut_TFX_LastProbe
	mov	DWORD PTR [edx], 171			; 000000abH
	mov	eax, DWORD PTR _csut_TFX_CoverageBuffer
	mov	BYTE PTR [eax+171], bl
	mov	ecx, DWORD PTR _csut_TFX_LastProbe
	mov	DWORD PTR [ecx], 237			; 000000edH
	mov	edx, DWORD PTR _csut_TFX_CoverageBuffer
	pop	edi
	pop	esi
	mov	BYTE PTR [edx+237], bl
	mov	eax, 1
	pop	ebx
; Line 437
	add	esp, 8
	ret	16					; 00000010H
	npad	1
$LN121@WndProc:
	DD	$LN82@WndProc
	DD	$LN18@WndProc
	DD	$LN17@WndProc
	DD	$LN17@WndProc
	DD	$LN80@WndProc
	DD	$LN17@WndProc
	DD	$LN81@WndProc
$LN122@WndProc:
	DD	$LN64@WndProc
	DD	$LN61@WndProc
	DD	$LN54@WndProc
	DD	$LN49@WndProc
	DD	$LN44@WndProc
	DD	$LN41@WndProc
	DD	$LN40@WndProc
	DD	$LN39@WndProc
	DD	$LN38@WndProc
	DD	$LN37@WndProc
	DD	$LN36@WndProc
	DD	$LN35@WndProc
	DD	$LN34@WndProc
	DD	$LN33@WndProc
	DD	$LN30@WndProc
	DD	$LN29@WndProc
	DD	$LN26@WndProc
	DD	$LN25@WndProc
_WndProc@16 ENDP
_TEXT	ENDS
PUBLIC	??_C@_0N@IPEEKDEP@WndProc_ret0?$AA@		; `string'
;	COMDAT ??_C@_0N@IPEEKDEP@WndProc_ret0?$AA@
; File f:\20120709_enterprise_ct_v2.0_workspace\vc2008_poppad3_c\unittest\wndproc_csut0.c
CONST	SEGMENT
??_C@_0N@IPEEKDEP@WndProc_ret0?$AA@ DB 'WndProc_ret0', 00H ; `string'
; Function compile flags: /Ogtpy
CONST	ENDS
;	COMDAT _WndProc_csut0
_TEXT	SEGMENT
_hwnd$ = 8						; size = 4
_csutp$ = 8						; size = 4
_WndProc_csut0 PROC					; COMDAT
; Line 26
	mov	eax, DWORD PTR _csutp$[esp-4]
; Line 27
	mov	edx, DWORD PTR [eax+4]
	mov	ecx, DWORD PTR [eax]
	push	esi
; Line 28
	mov	esi, DWORD PTR [eax+8]
; Line 29
	mov	al, BYTE PTR [eax+12]
; Line 31
	push	esi
	push	edx
	push	ecx
	mov	ecx, DWORD PTR _hwnd$[esp+12]
	push	ecx
	mov	BYTE PTR _szAppName, al
	call	_WndProc@16
; Line 32
	push	0
	push	0
	cdq
	push	4
	push	edx
	push	eax
	push	OFFSET ??_C@_0N@IPEEKDEP@WndProc_ret0?$AA@
	call	_csut_TFX_writeIntOutput
	add	esp, 24					; 00000018H
	pop	esi
; Line 34
	ret	0
_WndProc_csut0 ENDP
_TEXT	ENDS
PUBLIC	??_C@_0CC@HMMNKNGE@This?5program?5requires?5Windows?5NT@ ; `string'
PUBLIC	_WinMain@16
EXTRN	__imp__DispatchMessageA@4:PROC
EXTRN	__imp__TranslateMessage@4:PROC
EXTRN	__imp__IsDialogMessageA@8:PROC
EXTRN	__imp__TranslateAcceleratorA@12:PROC
EXTRN	__imp__GetMessageA@16:PROC
EXTRN	__imp__LoadAcceleratorsA@8:PROC
EXTRN	__imp__UpdateWindow@4:PROC
EXTRN	__imp__ShowWindow@8:PROC
EXTRN	__imp__RegisterClassA@4:PROC
EXTRN	__imp__GetStockObject@4:PROC
EXTRN	__imp__LoadCursorA@8:PROC
EXTRN	__imp__LoadIconA@8:PROC
;	COMDAT ??_C@_0CC@HMMNKNGE@This?5program?5requires?5Windows?5NT@
; File d:\open source\vs2008\c\poppad3\poppad.c
CONST	SEGMENT
??_C@_0CC@HMMNKNGE@This?5program?5requires?5Windows?5NT@ DB 'This program'
	DB	' requires Windows NT!', 00H			; `string'
; Function compile flags: /Ogtpy
CONST	ENDS
;	COMDAT _WinMain@16
_TEXT	SEGMENT
_msg$ = -68						; size = 28
_wndclass$ = -40					; size = 40
_hInstance$ = 8						; size = 4
_hPrevInstance$ = 12					; size = 4
_szCmdLine$ = 16					; size = 4
_iCmdShow$ = 20						; size = 4
_WinMain@16 PROC					; COMDAT
; Line 53
	sub	esp, 68					; 00000044H
	mov	eax, DWORD PTR _csut_TFX_LastProbe
	push	ebx
	push	ebp
	push	esi
; Line 63
	mov	esi, DWORD PTR _hInstance$[esp+76]
	mov	DWORD PTR [eax], 70			; 00000046H
	mov	ecx, DWORD PTR _csut_TFX_CoverageBuffer
	push	edi
; Line 64
	mov	ebp, OFFSET _szAppName
	push	ebp
	mov	bl, 49					; 00000031H
	mov	BYTE PTR [ecx+70], bl
	xor	edi, edi
	push	esi
	mov	DWORD PTR _wndclass$[esp+92], 3
	mov	DWORD PTR _wndclass$[esp+96], OFFSET _WndProc@16
	mov	DWORD PTR _wndclass$[esp+100], edi
	mov	DWORD PTR _wndclass$[esp+104], edi
	mov	DWORD PTR _wndclass$[esp+108], esi
	call	DWORD PTR __imp__LoadIconA@8
; Line 65
	push	32512					; 00007f00H
	push	edi
	mov	DWORD PTR _wndclass$[esp+112], eax
	call	DWORD PTR __imp__LoadCursorA@8
; Line 66
	push	edi
	mov	DWORD PTR _wndclass$[esp+112], eax
	call	DWORD PTR __imp__GetStockObject@4
; Line 68
	mov	edx, DWORD PTR _csut_TFX_LastProbe
	mov	DWORD PTR _wndclass$[esp+112], eax
	mov	DWORD PTR _wndclass$[esp+116], ebp
	mov	DWORD PTR _wndclass$[esp+120], ebp
	mov	DWORD PTR [edx], 71			; 00000047H
	mov	eax, DWORD PTR _csut_TFX_CoverageBuffer
; Line 70
	lea	ecx, DWORD PTR _wndclass$[esp+84]
	push	ecx
	mov	BYTE PTR [eax+71], bl
	call	DWORD PTR __imp__RegisterClassA@4
	test	ax, ax
	jne	SHORT $LN8@WinMain
; Line 71
	mov	edx, DWORD PTR _csut_TFX_LastProbe
; Line 73
	push	16					; 00000010H
	push	ebp
	mov	DWORD PTR [edx], 72			; 00000048H
	mov	eax, DWORD PTR _csut_TFX_CoverageBuffer
	push	OFFSET ??_C@_0CC@HMMNKNGE@This?5program?5requires?5Windows?5NT@
	push	edi
	mov	BYTE PTR [eax+72], bl
	call	DWORD PTR __imp__MessageBoxA@16
; Line 74
	mov	ecx, DWORD PTR _csut_TFX_LastProbe
	pop	edi
	mov	DWORD PTR [ecx], 82			; 00000052H
	mov	edx, DWORD PTR _csut_TFX_CoverageBuffer
	pop	esi
	pop	ebp
	mov	BYTE PTR [edx+82], bl
	xor	eax, eax
	pop	ebx
; Line 98
	add	esp, 68					; 00000044H
	ret	16					; 00000010H
$LN8@WinMain:
; Line 77
	mov	edx, DWORD PTR _szCmdLine$[esp+80]
	mov	eax, DWORD PTR _csut_TFX_LastProbe
	push	edx
	push	esi
	push	edi
	push	edi
	push	-2147483648				; 80000000H
	push	-2147483648				; 80000000H
	push	-2147483648				; 80000000H
	push	-2147483648				; 80000000H
	push	13565952				; 00cf0000H
	push	edi
	mov	DWORD PTR [eax], 73			; 00000049H
	mov	ecx, DWORD PTR _csut_TFX_CoverageBuffer
	push	ebp
	push	edi
	mov	BYTE PTR [ecx+73], bl
	call	DWORD PTR __imp__CreateWindowExA@48
	mov	edi, eax
; Line 81
	mov	eax, DWORD PTR _iCmdShow$[esp+80]
	push	eax
	push	edi
	call	DWORD PTR __imp__ShowWindow@8
; Line 82
	push	edi
	call	DWORD PTR __imp__UpdateWindow@4
; Line 84
	push	ebp
	push	esi
	call	DWORD PTR __imp__LoadAcceleratorsA@8
	mov	ecx, DWORD PTR _csut_TFX_LastProbe
; Line 86
	push	0
	push	0
	mov	esi, eax
	mov	DWORD PTR [ecx], 74			; 0000004aH
	mov	edx, DWORD PTR _csut_TFX_CoverageBuffer
	push	0
	lea	eax, DWORD PTR _msg$[esp+96]
	push	eax
	mov	BYTE PTR [edx+74], bl
	call	DWORD PTR __imp__GetMessageA@16
	test	eax, eax
	je	$LN5@WinMain
	mov	ebp, DWORD PTR __imp__TranslateAcceleratorA@12
	npad	4
$LL6@WinMain:
; Line 87
	mov	ecx, DWORD PTR _csut_TFX_LastProbe
; Line 88
	mov	eax, DWORD PTR _hDlgModeless
	mov	DWORD PTR [ecx], 80			; 00000050H
	mov	edx, DWORD PTR _csut_TFX_CoverageBuffer
	mov	BYTE PTR [edx+80], bl
	test	eax, eax
	jne	SHORT $LN13@WinMain
	mov	eax, DWORD PTR _csut_TFX_LastProbe
	mov	DWORD PTR [eax], 255			; 000000ffH
	mov	ecx, DWORD PTR _csut_TFX_CoverageBuffer
	mov	BYTE PTR [ecx+255], bl
	jmp	$LN16@WinMain
$LN13@WinMain:
	lea	edx, DWORD PTR _msg$[esp+84]
	push	edx
	push	eax
	call	DWORD PTR __imp__IsDialogMessageA@8
	test	eax, eax
	je	SHORT $LN11@WinMain
	mov	eax, DWORD PTR _csut_TFX_LastProbe
	mov	DWORD PTR [eax], 256			; 00000100H
	mov	ecx, DWORD PTR _csut_TFX_CoverageBuffer
	mov	BYTE PTR [ecx+256], bl
; Line 95
	mov	eax, DWORD PTR _csut_TFX_LastProbe
	mov	DWORD PTR [eax], 79			; 0000004fH
	mov	ecx, DWORD PTR _csut_TFX_CoverageBuffer
	mov	BYTE PTR [ecx+79], bl
$LN1@WinMain:
	push	0
	push	0
	push	0
	lea	edx, DWORD PTR _msg$[esp+96]
	push	edx
	call	DWORD PTR __imp__GetMessageA@16
	test	eax, eax
	jne	$LL6@WinMain
$LN5@WinMain:
; Line 96
	mov	eax, DWORD PTR _csut_TFX_LastProbe
	mov	DWORD PTR [eax], 81			; 00000051H
	mov	ecx, DWORD PTR _csut_TFX_CoverageBuffer
	mov	BYTE PTR [ecx+81], bl
; Line 97
	mov	edx, DWORD PTR _csut_TFX_LastProbe
	mov	eax, DWORD PTR _msg$[esp+92]
	pop	edi
	mov	DWORD PTR [edx], 83			; 00000053H
	mov	ecx, DWORD PTR _csut_TFX_CoverageBuffer
	pop	esi
	pop	ebp
	mov	BYTE PTR [ecx+83], bl
	pop	ebx
; Line 98
	add	esp, 68					; 00000044H
	ret	16					; 00000010H
$LN11@WinMain:
; Line 88
	mov	edx, DWORD PTR _csut_TFX_LastProbe
	mov	DWORD PTR [edx], 257			; 00000101H
	mov	eax, DWORD PTR _csut_TFX_CoverageBuffer
	mov	BYTE PTR [eax+257], bl
$LN16@WinMain:
; Line 89
	mov	ecx, DWORD PTR _csut_TFX_LastProbe
; Line 90
	lea	eax, DWORD PTR _msg$[esp+84]
	push	eax
	mov	DWORD PTR [ecx], 78			; 0000004eH
	mov	edx, DWORD PTR _csut_TFX_CoverageBuffer
	push	esi
	push	edi
	mov	BYTE PTR [edx+78], bl
	call	ebp
; Line 91
	mov	ecx, DWORD PTR _csut_TFX_LastProbe
	test	eax, eax
	jne	SHORT $LN3@WinMain
	mov	DWORD PTR [ecx], 76			; 0000004cH
	mov	edx, DWORD PTR _csut_TFX_CoverageBuffer
; Line 92
	lea	eax, DWORD PTR _msg$[esp+84]
	push	eax
	mov	BYTE PTR [edx+76], bl
	call	DWORD PTR __imp__TranslateMessage@4
; Line 93
	lea	ecx, DWORD PTR _msg$[esp+84]
	push	ecx
	call	DWORD PTR __imp__DispatchMessageA@4
	mov	edx, DWORD PTR _csut_TFX_LastProbe
	mov	DWORD PTR [edx], 75			; 0000004bH
	mov	eax, DWORD PTR _csut_TFX_CoverageBuffer
	mov	BYTE PTR [eax+75], bl
	jmp	$LN1@WinMain
$LN3@WinMain:
; Line 94
	mov	DWORD PTR [ecx], 77			; 0000004dH
	mov	edx, DWORD PTR _csut_TFX_CoverageBuffer
	mov	BYTE PTR [edx+77], bl
	jmp	$LN1@WinMain
_WinMain@16 ENDP
_TEXT	ENDS
PUBLIC	??_C@_0N@PJNGAOOP@WinMain_ret0?$AA@		; `string'
;	COMDAT ??_C@_0N@PJNGAOOP@WinMain_ret0?$AA@
; File f:\20120709_enterprise_ct_v2.0_workspace\vc2008_poppad3_c\unittest\winmain_csut0.c
CONST	SEGMENT
??_C@_0N@PJNGAOOP@WinMain_ret0?$AA@ DB 'WinMain_ret0', 00H ; `string'
; Function compile flags: /Ogtpy
CONST	ENDS
;	COMDAT _WinMain_csut0
_TEXT	SEGMENT
_hInstance$ = 8						; size = 4
_hPrevInstance$ = 8					; size = 4
_mem18$ = 8						; size = 1
_csutp$ = 8						; size = 4
_WinMain_csut0 PROC					; COMDAT
; Line 28
	mov	eax, DWORD PTR _csutp$[esp-4]
	mov	cl, BYTE PTR [eax]
; Line 30
	mov	dl, BYTE PTR [eax+8]
	mov	BYTE PTR _mem18$[esp-4], cl
	mov	ecx, DWORD PTR [eax+4]
; Line 32
	push	ecx
	mov	ecx, DWORD PTR _hPrevInstance$[esp]
	lea	eax, DWORD PTR _mem18$[esp]
	push	eax
	mov	BYTE PTR _szAppName, dl
	mov	edx, DWORD PTR _hInstance$[esp+4]
	push	ecx
	push	edx
	call	_WinMain@16
; Line 33
	push	0
	push	0
	cdq
	push	4
	push	edx
	push	eax
	push	OFFSET ??_C@_0N@PJNGAOOP@WinMain_ret0?$AA@
	call	_csut_TFX_writeIntOutput
	add	esp, 24					; 00000018H
; Line 35
	ret	0
_WinMain_csut0 ENDP
_TEXT	ENDS
END
