; Listing generated by Microsoft (R) Optimizing Compiler Version 15.00.30729.01 

	TITLE	F:\20120709_Enterprise_CT_V2.0_workspace\kljl\.csdata\src\build\PopFind_2.c
	.686P
	.XMM
	include listing.inc
	.model	flat

INCLUDELIB LIBCMTD
INCLUDELIB OLDNAMES

PUBLIC	_PopFindFindDlg
EXTRN	__imp__FindTextW@4:PROC
EXTRN	_csut_TFX_CoverageBuffer:DWORD
EXTRN	_csut_TFX_LastProbe:DWORD
_BSS	SEGMENT
_szFindText DW	0100H DUP (?)
?fr@?1??PopFindFindDlg@@9@9 DB 028H DUP (?)		; `PopFindFindDlg'::`2'::fr
; Function compile flags: /Odtp /ZI
_BSS	ENDS
;	COMDAT _PopFindFindDlg
_TEXT	SEGMENT
_csut_ret$78785 = -8					; size = 4
_codescroll_8589936192$ = -4				; size = 4
_hwnd$ = 8						; size = 4
_PopFindFindDlg PROC					; COMDAT
; File d:\open source\vs2008\c\poppad3\popfind.c
; Line 17
	push	ebp
	mov	ebp, esp
	sub	esp, 72					; 00000048H
	push	ebx
	push	esi
	push	edi
	mov	eax, DWORD PTR _csut_TFX_LastProbe
	mov	DWORD PTR [eax], 39			; 00000027H
	mov	ecx, DWORD PTR _csut_TFX_CoverageBuffer
	mov	BYTE PTR [ecx+39], 49			; 00000031H
	mov	DWORD PTR _codescroll_8589936192$[ebp], 0
; Line 20
	mov	DWORD PTR ?fr@?1??PopFindFindDlg@@9@9, 40 ; 00000028H
; Line 21
	mov	eax, DWORD PTR _hwnd$[ebp]
	mov	DWORD PTR ?fr@?1??PopFindFindDlg@@9@9+4, eax
; Line 22
	mov	DWORD PTR ?fr@?1??PopFindFindDlg@@9@9+8, 0
; Line 23
	mov	DWORD PTR ?fr@?1??PopFindFindDlg@@9@9+12, 114688 ; 0001c000H
; Line 24
	mov	DWORD PTR ?fr@?1??PopFindFindDlg@@9@9+16, OFFSET _szFindText
; Line 25
	mov	DWORD PTR ?fr@?1??PopFindFindDlg@@9@9+20, 0
; Line 26
	mov	eax, 256				; 00000100H
	mov	WORD PTR ?fr@?1??PopFindFindDlg@@9@9+24, ax
; Line 27
	xor	eax, eax
	mov	WORD PTR ?fr@?1??PopFindFindDlg@@9@9+26, ax
; Line 28
	mov	DWORD PTR ?fr@?1??PopFindFindDlg@@9@9+28, 0
; Line 29
	mov	DWORD PTR ?fr@?1??PopFindFindDlg@@9@9+32, 0
; Line 30
	mov	DWORD PTR ?fr@?1??PopFindFindDlg@@9@9+36, 0
; Line 32
	push	OFFSET ?fr@?1??PopFindFindDlg@@9@9
	call	DWORD PTR __imp__FindTextW@4
	mov	DWORD PTR _csut_ret$78785[ebp], eax
	mov	eax, DWORD PTR _csut_TFX_LastProbe
	mov	DWORD PTR [eax], 40			; 00000028H
	mov	ecx, DWORD PTR _csut_TFX_CoverageBuffer
	mov	BYTE PTR [ecx+40], 49			; 00000031H
	mov	eax, DWORD PTR _csut_ret$78785[ebp]
; Line 33
	pop	edi
	pop	esi
	pop	ebx
	mov	esp, ebp
	pop	ebp
	ret	0
_PopFindFindDlg ENDP
_TEXT	ENDS
PUBLIC	_PopFindReplaceDlg
EXTRN	__imp__ReplaceTextW@4:PROC
_BSS	SEGMENT
_szReplText DW	0100H DUP (?)
?fr@?1??PopFindReplaceDlg@@9@9 DB 028H DUP (?)		; `PopFindReplaceDlg'::`2'::fr
; Function compile flags: /Odtp /ZI
_BSS	ENDS
;	COMDAT _PopFindReplaceDlg
_TEXT	SEGMENT
_csut_ret$78794 = -8					; size = 4
_codescroll_8589936193$ = -4				; size = 4
_hwnd$ = 8						; size = 4
_PopFindReplaceDlg PROC					; COMDAT
; Line 42
	push	ebp
	mov	ebp, esp
	sub	esp, 72					; 00000048H
	push	ebx
	push	esi
	push	edi
	mov	eax, DWORD PTR _csut_TFX_LastProbe
	mov	DWORD PTR [eax], 41			; 00000029H
	mov	ecx, DWORD PTR _csut_TFX_CoverageBuffer
	mov	BYTE PTR [ecx+41], 49			; 00000031H
	mov	DWORD PTR _codescroll_8589936193$[ebp], 0
; Line 45
	mov	DWORD PTR ?fr@?1??PopFindReplaceDlg@@9@9, 40 ; 00000028H
; Line 46
	mov	eax, DWORD PTR _hwnd$[ebp]
	mov	DWORD PTR ?fr@?1??PopFindReplaceDlg@@9@9+4, eax
; Line 47
	mov	DWORD PTR ?fr@?1??PopFindReplaceDlg@@9@9+8, 0
; Line 48
	mov	DWORD PTR ?fr@?1??PopFindReplaceDlg@@9@9+12, 114688 ; 0001c000H
; Line 49
	mov	DWORD PTR ?fr@?1??PopFindReplaceDlg@@9@9+16, OFFSET _szFindText
; Line 50
	mov	DWORD PTR ?fr@?1??PopFindReplaceDlg@@9@9+20, OFFSET _szReplText
; Line 51
	mov	eax, 256				; 00000100H
	mov	WORD PTR ?fr@?1??PopFindReplaceDlg@@9@9+24, ax
; Line 52
	mov	eax, 256				; 00000100H
	mov	WORD PTR ?fr@?1??PopFindReplaceDlg@@9@9+26, ax
; Line 53
	mov	DWORD PTR ?fr@?1??PopFindReplaceDlg@@9@9+28, 0
; Line 54
	mov	DWORD PTR ?fr@?1??PopFindReplaceDlg@@9@9+32, 0
; Line 55
	mov	DWORD PTR ?fr@?1??PopFindReplaceDlg@@9@9+36, 0
; Line 57
	push	OFFSET ?fr@?1??PopFindReplaceDlg@@9@9
	call	DWORD PTR __imp__ReplaceTextW@4
	mov	DWORD PTR _csut_ret$78794[ebp], eax
	mov	eax, DWORD PTR _csut_TFX_LastProbe
	mov	DWORD PTR [eax], 42			; 0000002aH
	mov	ecx, DWORD PTR _csut_TFX_CoverageBuffer
	mov	BYTE PTR [ecx+42], 49			; 00000031H
	mov	eax, DWORD PTR _csut_ret$78794[ebp]
; Line 58
	pop	edi
	pop	esi
	pop	ebx
	mov	esp, ebp
	pop	ebp
	ret	0
_PopFindReplaceDlg ENDP
_TEXT	ENDS
PUBLIC	_PopFindFindText
EXTRN	__imp__SendMessageW@16:PROC
EXTRN	__imp__lstrlenW@4:PROC
EXTRN	_free:PROC
EXTRN	_wcsstr:PROC
EXTRN	__imp__GetWindowTextW@12:PROC
EXTRN	_malloc:PROC
EXTRN	__imp__GetWindowTextLengthW@4:PROC
; Function compile flags: /Odtp /ZI
;	COMDAT _PopFindFindText
_TEXT	SEGMENT
_pstrPos$ = -20						; size = 4
_pstrDoc$ = -16						; size = 4
_iPos$ = -12						; size = 4
_iLength$ = -8						; size = 4
_codescroll_8589936194$ = -4				; size = 4
_hwndEdit$ = 8						; size = 4
_piSearchOffset$ = 12					; size = 4
_pfr$ = 16						; size = 4
_PopFindFindText PROC					; COMDAT
; Line 67
	push	ebp
	mov	ebp, esp
	sub	esp, 84					; 00000054H
	push	ebx
	push	esi
	push	edi
	mov	eax, DWORD PTR _csut_TFX_LastProbe
	mov	DWORD PTR [eax], 43			; 0000002bH
	mov	ecx, DWORD PTR _csut_TFX_CoverageBuffer
	mov	BYTE PTR [ecx+43], 49			; 00000031H
	mov	DWORD PTR _codescroll_8589936194$[ebp], 0
; Line 73
	mov	eax, DWORD PTR _hwndEdit$[ebp]
	push	eax
	call	DWORD PTR __imp__GetWindowTextLengthW@4
	mov	DWORD PTR _iLength$[ebp], eax
	mov	eax, DWORD PTR _csut_TFX_LastProbe
	mov	DWORD PTR [eax], 44			; 0000002cH
	mov	ecx, DWORD PTR _csut_TFX_CoverageBuffer
	mov	BYTE PTR [ecx+44], 49			; 00000031H
; Line 75
	mov	eax, DWORD PTR _iLength$[ebp]
	lea	ecx, DWORD PTR [eax+eax+2]
	push	ecx
	call	_malloc
	add	esp, 4
	mov	DWORD PTR _pstrDoc$[ebp], eax
	cmp	DWORD PTR _pstrDoc$[ebp], 0
	jne	SHORT $LN4@PopFindFin
; Line 76
	mov	eax, DWORD PTR _csut_TFX_LastProbe
	mov	DWORD PTR [eax], 45			; 0000002dH
	mov	ecx, DWORD PTR _csut_TFX_CoverageBuffer
	mov	BYTE PTR [ecx+45], 49			; 00000031H
	mov	eax, DWORD PTR _csut_TFX_LastProbe
	mov	DWORD PTR [eax], 50			; 00000032H
	mov	ecx, DWORD PTR _csut_TFX_CoverageBuffer
	mov	BYTE PTR [ecx+50], 49			; 00000031H
	xor	eax, eax
	jmp	$LN5@PopFindFin
	jmp	SHORT $LN3@PopFindFin
$LN4@PopFindFin:
	mov	eax, DWORD PTR _csut_TFX_LastProbe
	mov	DWORD PTR [eax], 46			; 0000002eH
	mov	ecx, DWORD PTR _csut_TFX_CoverageBuffer
	mov	BYTE PTR [ecx+46], 49			; 00000031H
$LN3@PopFindFin:
; Line 78
	mov	eax, DWORD PTR _iLength$[ebp]
	add	eax, 1
	push	eax
	mov	ecx, DWORD PTR _pstrDoc$[ebp]
	push	ecx
	mov	edx, DWORD PTR _hwndEdit$[ebp]
	push	edx
	call	DWORD PTR __imp__GetWindowTextW@12
; Line 82
	mov	eax, DWORD PTR _pfr$[ebp]
	mov	ecx, DWORD PTR [eax+16]
	push	ecx
	mov	edx, DWORD PTR _piSearchOffset$[ebp]
	mov	eax, DWORD PTR [edx]
	mov	ecx, DWORD PTR _pstrDoc$[ebp]
	lea	edx, DWORD PTR [ecx+eax*2]
	push	edx
	call	_wcsstr
	add	esp, 8
	mov	DWORD PTR _pstrPos$[ebp], eax
; Line 83
	mov	eax, DWORD PTR _pstrDoc$[ebp]
	push	eax
	call	_free
	add	esp, 4
	mov	eax, DWORD PTR _csut_TFX_LastProbe
	mov	DWORD PTR [eax], 47			; 0000002fH
	mov	ecx, DWORD PTR _csut_TFX_CoverageBuffer
	mov	BYTE PTR [ecx+47], 49			; 00000031H
; Line 87
	cmp	DWORD PTR _pstrPos$[ebp], 0
	jne	SHORT $LN2@PopFindFin
; Line 88
	mov	eax, DWORD PTR _csut_TFX_LastProbe
	mov	DWORD PTR [eax], 48			; 00000030H
	mov	ecx, DWORD PTR _csut_TFX_CoverageBuffer
	mov	BYTE PTR [ecx+48], 49			; 00000031H
	mov	eax, DWORD PTR _csut_TFX_LastProbe
	mov	DWORD PTR [eax], 51			; 00000033H
	mov	ecx, DWORD PTR _csut_TFX_CoverageBuffer
	mov	BYTE PTR [ecx+51], 49			; 00000031H
	xor	eax, eax
	jmp	SHORT $LN5@PopFindFin
	jmp	SHORT $LN1@PopFindFin
$LN2@PopFindFin:
	mov	eax, DWORD PTR _csut_TFX_LastProbe
	mov	DWORD PTR [eax], 49			; 00000031H
	mov	ecx, DWORD PTR _csut_TFX_CoverageBuffer
	mov	BYTE PTR [ecx+49], 49			; 00000031H
$LN1@PopFindFin:
; Line 92
	mov	eax, DWORD PTR _pstrPos$[ebp]
	sub	eax, DWORD PTR _pstrDoc$[ebp]
	sar	eax, 1
	mov	DWORD PTR _iPos$[ebp], eax
; Line 93
	mov	eax, DWORD PTR _pfr$[ebp]
	mov	ecx, DWORD PTR [eax+16]
	push	ecx
	call	DWORD PTR __imp__lstrlenW@4
	add	eax, DWORD PTR _iPos$[ebp]
	mov	edx, DWORD PTR _piSearchOffset$[ebp]
	mov	DWORD PTR [edx], eax
; Line 97
	mov	eax, DWORD PTR _piSearchOffset$[ebp]
	mov	ecx, DWORD PTR [eax]
	push	ecx
	mov	edx, DWORD PTR _iPos$[ebp]
	push	edx
	push	177					; 000000b1H
	mov	eax, DWORD PTR _hwndEdit$[ebp]
	push	eax
	call	DWORD PTR __imp__SendMessageW@16
; Line 98
	push	0
	push	0
	push	183					; 000000b7H
	mov	eax, DWORD PTR _hwndEdit$[ebp]
	push	eax
	call	DWORD PTR __imp__SendMessageW@16
; Line 100
	mov	eax, DWORD PTR _csut_TFX_LastProbe
	mov	DWORD PTR [eax], 52			; 00000034H
	mov	ecx, DWORD PTR _csut_TFX_CoverageBuffer
	mov	BYTE PTR [ecx+52], 49			; 00000031H
	mov	eax, 1
$LN5@PopFindFin:
; Line 101
	pop	edi
	pop	esi
	pop	ebx
	mov	esp, ebp
	pop	ebp
	ret	0
_PopFindFindText ENDP
_TEXT	ENDS
PUBLIC	_PopFindNextText
; Function compile flags: /Odtp /ZI
;	COMDAT _PopFindNextText
_TEXT	SEGMENT
_csut_ret$78822 = -48					; size = 4
_fr$ = -44						; size = 40
_codescroll_8589936195$ = -4				; size = 4
_hwndEdit$ = 8						; size = 4
_piSearchOffset$ = 12					; size = 4
_PopFindNextText PROC					; COMDAT
; Line 110
	push	ebp
	mov	ebp, esp
	sub	esp, 112				; 00000070H
	push	ebx
	push	esi
	push	edi
	mov	eax, DWORD PTR _csut_TFX_LastProbe
	mov	DWORD PTR [eax], 53			; 00000035H
	mov	ecx, DWORD PTR _csut_TFX_CoverageBuffer
	mov	BYTE PTR [ecx+53], 49			; 00000031H
	mov	DWORD PTR _codescroll_8589936195$[ebp], 0
; Line 113
	mov	DWORD PTR _fr$[ebp+16], OFFSET _szFindText
; Line 115
	lea	eax, DWORD PTR _fr$[ebp]
	push	eax
	mov	ecx, DWORD PTR _piSearchOffset$[ebp]
	push	ecx
	mov	edx, DWORD PTR _hwndEdit$[ebp]
	push	edx
	call	_PopFindFindText
	add	esp, 12					; 0000000cH
	mov	DWORD PTR _csut_ret$78822[ebp], eax
	mov	eax, DWORD PTR _csut_TFX_LastProbe
	mov	DWORD PTR [eax], 54			; 00000036H
	mov	ecx, DWORD PTR _csut_TFX_CoverageBuffer
	mov	BYTE PTR [ecx+54], 49			; 00000031H
	mov	eax, DWORD PTR _csut_ret$78822[ebp]
; Line 116
	pop	edi
	pop	esi
	pop	ebx
	mov	esp, ebp
	pop	ebp
	ret	0
_PopFindNextText ENDP
_TEXT	ENDS
PUBLIC	_PopFindReplaceText
; Function compile flags: /Odtp /ZI
;	COMDAT _PopFindReplaceText
_TEXT	SEGMENT
_hwndEdit$ = 8						; size = 4
_piSearchOffset$ = 12					; size = 4
_pfr$ = 16						; size = 4
_PopFindReplaceText PROC				; COMDAT
; Line 125
	push	ebp
	mov	ebp, esp
	sub	esp, 64					; 00000040H
	push	ebx
	push	esi
	push	edi
	mov	eax, DWORD PTR _csut_TFX_LastProbe
	mov	DWORD PTR [eax], 55			; 00000037H
	mov	ecx, DWORD PTR _csut_TFX_CoverageBuffer
	mov	BYTE PTR [ecx+55], 49			; 00000031H
; Line 128
	mov	eax, DWORD PTR _pfr$[ebp]
	push	eax
	mov	ecx, DWORD PTR _piSearchOffset$[ebp]
	push	ecx
	mov	edx, DWORD PTR _hwndEdit$[ebp]
	push	edx
	call	_PopFindFindText
	add	esp, 12					; 0000000cH
	test	eax, eax
	jne	SHORT $LN2@PopFindRep
; Line 129
	mov	eax, DWORD PTR _csut_TFX_LastProbe
	mov	DWORD PTR [eax], 56			; 00000038H
	mov	ecx, DWORD PTR _csut_TFX_CoverageBuffer
	mov	BYTE PTR [ecx+56], 49			; 00000031H
	mov	eax, DWORD PTR _csut_TFX_LastProbe
	mov	DWORD PTR [eax], 58			; 0000003aH
	mov	ecx, DWORD PTR _csut_TFX_CoverageBuffer
	mov	BYTE PTR [ecx+58], 49			; 00000031H
	xor	eax, eax
	jmp	SHORT $LN3@PopFindRep
	jmp	SHORT $LN1@PopFindRep
$LN2@PopFindRep:
	mov	eax, DWORD PTR _csut_TFX_LastProbe
	mov	DWORD PTR [eax], 57			; 00000039H
	mov	ecx, DWORD PTR _csut_TFX_CoverageBuffer
	mov	BYTE PTR [ecx+57], 49			; 00000031H
$LN1@PopFindRep:
; Line 133
	mov	eax, DWORD PTR _pfr$[ebp]
	mov	ecx, DWORD PTR [eax+20]
	push	ecx
	push	0
	push	194					; 000000c2H
	mov	edx, DWORD PTR _hwndEdit$[ebp]
	push	edx
	call	DWORD PTR __imp__SendMessageW@16
; Line 135
	mov	eax, DWORD PTR _csut_TFX_LastProbe
	mov	DWORD PTR [eax], 59			; 0000003bH
	mov	ecx, DWORD PTR _csut_TFX_CoverageBuffer
	mov	BYTE PTR [ecx+59], 49			; 00000031H
	mov	eax, 1
$LN3@PopFindRep:
; Line 136
	pop	edi
	pop	esi
	pop	ebx
	mov	esp, ebp
	pop	ebp
	ret	0
_PopFindReplaceText ENDP
_TEXT	ENDS
PUBLIC	_PopFindValidFind
; Function compile flags: /Odtp /ZI
;	COMDAT _PopFindValidFind
_TEXT	SEGMENT
_csut_ret$78837 = -4					; size = 4
_PopFindValidFind PROC					; COMDAT
; Line 145
	push	ebp
	mov	ebp, esp
	sub	esp, 68					; 00000044H
	push	ebx
	push	esi
	push	edi
	mov	eax, DWORD PTR _csut_TFX_LastProbe
	mov	DWORD PTR [eax], 60			; 0000003cH
	mov	ecx, DWORD PTR _csut_TFX_CoverageBuffer
	mov	BYTE PTR [ecx+60], 49			; 00000031H
; Line 146
	movzx	eax, WORD PTR _szFindText
	neg	eax
	sbb	eax, eax
	neg	eax
	mov	DWORD PTR _csut_ret$78837[ebp], eax
	mov	eax, DWORD PTR _csut_TFX_LastProbe
	mov	DWORD PTR [eax], 61			; 0000003dH
	mov	ecx, DWORD PTR _csut_TFX_CoverageBuffer
	mov	BYTE PTR [ecx+61], 49			; 00000031H
	mov	eax, DWORD PTR _csut_ret$78837[ebp]
; Line 147
	pop	edi
	pop	esi
	pop	ebx
	mov	esp, ebp
	pop	ebp
	ret	0
_PopFindValidFind ENDP
_TEXT	ENDS
END
