; Listing generated by Microsoft (R) Optimizing Compiler Version 15.00.30729.01 

	TITLE	F:\20120709_Enterprise_CT_V2.0_workspace\kljl\.csdata\src\build\PopPad_4.c
	.686P
	.XMM
	include listing.inc
	.model	flat

INCLUDELIB LIBCMTD
INCLUDELIB OLDNAMES

PUBLIC	??_C@_0BG@NHEMDOCL@struct?5WndProc_csut0p?$AA@	; `string'
PUBLIC	??_C@_0O@NBKPNPDE@WndProc_csut0?$AA@		; `string'
PUBLIC	_WndProc_csut0
PUBLIC	??_C@_0BL@OKMAMMNA@struct?5AboutDlgProc_csut0p?$AA@ ; `string'
PUBLIC	??_C@_0BD@DDIAGLCI@AboutDlgProc_csut0?$AA@	; `string'
PUBLIC	_AboutDlgProc_csut0
PUBLIC	__TFX_testFunctionsFor_281474976710656
PUBLIC	__TFX_testFunctionsFor_562949953421312
_BSS	SEGMENT
?bNeedSave@?1??WndProc@@9@9 DD 01H DUP (?)		; `WndProc'::`2'::bNeedSave
_BSS	ENDS
;	COMDAT ??_C@_0BG@NHEMDOCL@struct?5WndProc_csut0p?$AA@
CONST	SEGMENT
??_C@_0BG@NHEMDOCL@struct?5WndProc_csut0p?$AA@ DB 'struct WndProc_csut0p', 00H ; `string'
CONST	ENDS
;	COMDAT ??_C@_0O@NBKPNPDE@WndProc_csut0?$AA@
CONST	SEGMENT
??_C@_0O@NBKPNPDE@WndProc_csut0?$AA@ DB 'WndProc_csut0', 00H ; `string'
CONST	ENDS
;	COMDAT ??_C@_0BL@OKMAMMNA@struct?5AboutDlgProc_csut0p?$AA@
CONST	SEGMENT
??_C@_0BL@OKMAMMNA@struct?5AboutDlgProc_csut0p?$AA@ DB 'struct AboutDlgPr'
	DB	'oc_csut0p', 00H				; `string'
CONST	ENDS
;	COMDAT ??_C@_0BD@DDIAGLCI@AboutDlgProc_csut0?$AA@
CONST	SEGMENT
??_C@_0BD@DDIAGLCI@AboutDlgProc_csut0?$AA@ DB 'AboutDlgProc_csut0', 00H ; `string'
CONST	ENDS
_DATA	SEGMENT
_szAppName DB	'P', 00H, 'o', 00H, 'p', 00H, 'P', 00H, 'a', 00H, 'd', 00H
	DB	00H, 00H
	ORG $+2
__TFX_testFunctionsFor_281474976710656 DD 04H
	DD	FLAT:_AboutDlgProc_csut0
	DD	FLAT:??_C@_0BD@DDIAGLCI@AboutDlgProc_csut0?$AA@
	DD	FLAT:??_C@_0BL@OKMAMMNA@struct?5AboutDlgProc_csut0p?$AA@
	DD	010H
	DD	00H
	DD	00H
	DD	00H
	DD	05H
	DD	00H
	DD	00H
	DD	00H
	DD	00H
	DD	00H
	DD	00H
	DD	00H
__TFX_testFunctionsFor_562949953421312 DD 04H
	DD	FLAT:_WndProc_csut0
	DD	FLAT:??_C@_0O@NBKPNPDE@WndProc_csut0?$AA@
	DD	FLAT:??_C@_0BG@NHEMDOCL@struct?5WndProc_csut0p?$AA@
	DD	014H
	DD	00H
	DD	00H
	DD	00H
	DD	05H
	DD	00H
	DD	00H
	DD	00H
	DD	00H
	DD	00H
	DD	00H
	DD	00H
_DATA	ENDS
PUBLIC	??_C@_1EE@GKOCIGDB@?$AAT?$AAh?$AAi?$AAs?$AA?5?$AAp?$AAr?$AAo?$AAg?$AAr?$AAa?$AAm?$AA?5?$AAr?$AAe?$AAq?$AAu?$AAi?$AAr?$AAe?$AAs?$AA?5?$AAW?$AAi?$AAn?$AAd?$AAo?$AAw?$AAs?$AA?5?$AAN?$AAT@ ; `string'
PUBLIC	_WndProc@16
PUBLIC	_WinMain@16
EXTRN	__imp__DispatchMessageW@4:PROC
EXTRN	__imp__TranslateMessage@4:PROC
EXTRN	__imp__TranslateAcceleratorW@12:PROC
EXTRN	__imp__IsDialogMessageW@8:PROC
EXTRN	__imp__GetMessageW@16:PROC
EXTRN	__imp__LoadAcceleratorsW@8:PROC
EXTRN	__imp__UpdateWindow@4:PROC
EXTRN	__imp__ShowWindow@8:PROC
EXTRN	__imp__CreateWindowExW@48:PROC
EXTRN	__imp__MessageBoxW@16:PROC
EXTRN	__imp__RegisterClassW@4:PROC
EXTRN	__imp__GetStockObject@4:PROC
EXTRN	__imp__LoadCursorW@8:PROC
EXTRN	__imp__LoadIconW@8:PROC
EXTRN	_csut_TFX_CoverageBuffer:DWORD
EXTRN	_csut_TFX_LastProbe:DWORD
_BSS	SEGMENT
_hDlgModeless DD 01H DUP (?)
_BSS	ENDS
;	COMDAT ??_C@_1EE@GKOCIGDB@?$AAT?$AAh?$AAi?$AAs?$AA?5?$AAp?$AAr?$AAo?$AAg?$AAr?$AAa?$AAm?$AA?5?$AAr?$AAe?$AAq?$AAu?$AAi?$AAr?$AAe?$AAs?$AA?5?$AAW?$AAi?$AAn?$AAd?$AAo?$AAw?$AAs?$AA?5?$AAN?$AAT@
; File d:\open source\vs2008\c\poppad3\poppad.c
CONST	SEGMENT
??_C@_1EE@GKOCIGDB@?$AAT?$AAh?$AAi?$AAs?$AA?5?$AAp?$AAr?$AAo?$AAg?$AAr?$AAa?$AAm?$AA?5?$AAr?$AAe?$AAq?$AAu?$AAi?$AAr?$AAe?$AAs?$AA?5?$AAW?$AAi?$AAn?$AAd?$AAo?$AAw?$AAs?$AA?5?$AAN?$AAT@ DB 'T'
	DB	00H, 'h', 00H, 'i', 00H, 's', 00H, ' ', 00H, 'p', 00H, 'r', 00H
	DB	'o', 00H, 'g', 00H, 'r', 00H, 'a', 00H, 'm', 00H, ' ', 00H, 'r'
	DB	00H, 'e', 00H, 'q', 00H, 'u', 00H, 'i', 00H, 'r', 00H, 'e', 00H
	DB	's', 00H, ' ', 00H, 'W', 00H, 'i', 00H, 'n', 00H, 'd', 00H, 'o'
	DB	00H, 'w', 00H, 's', 00H, ' ', 00H, 'N', 00H, 'T', 00H, '!', 00H
	DB	00H, 00H					; `string'
; Function compile flags: /Odtp /ZI
CONST	ENDS
;	COMDAT _WinMain@16
_TEXT	SEGMENT
tv152 = -156						; size = 4
tv153 = -152						; size = 4
_csut_ret$77233 = -84					; size = 4
_wndclass$ = -80					; size = 40
_hAccel$ = -40						; size = 4
_hwnd$ = -36						; size = 4
_msg$ = -32						; size = 28
_codescroll_17179871770$ = -4				; size = 4
_hInstance$ = 8						; size = 4
_hPrevInstance$ = 12					; size = 4
_szCmdLine$ = 16					; size = 4
_iCmdShow$ = 20						; size = 4
_WinMain@16 PROC					; COMDAT
; Line 53
	push	ebp
	mov	ebp, esp
	sub	esp, 156				; 0000009cH
	push	ebx
	push	esi
	push	edi
	mov	eax, DWORD PTR _csut_TFX_LastProbe
	mov	DWORD PTR [eax], 70			; 00000046H
	mov	ecx, DWORD PTR _csut_TFX_CoverageBuffer
	mov	BYTE PTR [ecx+70], 49			; 00000031H
	mov	DWORD PTR _codescroll_17179871770$[ebp], 0
; Line 59
	mov	DWORD PTR _wndclass$[ebp], 3
; Line 60
	mov	DWORD PTR _wndclass$[ebp+4], OFFSET _WndProc@16
; Line 61
	mov	DWORD PTR _wndclass$[ebp+8], 0
; Line 62
	mov	DWORD PTR _wndclass$[ebp+12], 0
; Line 63
	mov	eax, DWORD PTR _hInstance$[ebp]
	mov	DWORD PTR _wndclass$[ebp+16], eax
; Line 64
	push	OFFSET _szAppName
	mov	eax, DWORD PTR _hInstance$[ebp]
	push	eax
	call	DWORD PTR __imp__LoadIconW@8
	mov	DWORD PTR _wndclass$[ebp+20], eax
; Line 65
	push	32512					; 00007f00H
	push	0
	call	DWORD PTR __imp__LoadCursorW@8
	mov	DWORD PTR _wndclass$[ebp+24], eax
; Line 66
	push	0
	call	DWORD PTR __imp__GetStockObject@4
	mov	DWORD PTR _wndclass$[ebp+28], eax
; Line 67
	mov	DWORD PTR _wndclass$[ebp+32], OFFSET _szAppName
; Line 68
	mov	DWORD PTR _wndclass$[ebp+36], OFFSET _szAppName
	mov	eax, DWORD PTR _csut_TFX_LastProbe
	mov	DWORD PTR [eax], 71			; 00000047H
	mov	ecx, DWORD PTR _csut_TFX_CoverageBuffer
	mov	BYTE PTR [ecx+71], 49			; 00000031H
; Line 70
	lea	eax, DWORD PTR _wndclass$[ebp]
	push	eax
	call	DWORD PTR __imp__RegisterClassW@4
	movzx	ecx, ax
	test	ecx, ecx
	jne	SHORT $LN8@WinMain
; Line 71
	mov	eax, DWORD PTR _csut_TFX_LastProbe
	mov	DWORD PTR [eax], 72			; 00000048H
	mov	ecx, DWORD PTR _csut_TFX_CoverageBuffer
	mov	BYTE PTR [ecx+72], 49			; 00000031H
; Line 73
	push	16					; 00000010H
	push	OFFSET _szAppName
	push	OFFSET ??_C@_1EE@GKOCIGDB@?$AAT?$AAh?$AAi?$AAs?$AA?5?$AAp?$AAr?$AAo?$AAg?$AAr?$AAa?$AAm?$AA?5?$AAr?$AAe?$AAq?$AAu?$AAi?$AAr?$AAe?$AAs?$AA?5?$AAW?$AAi?$AAn?$AAd?$AAo?$AAw?$AAs?$AA?5?$AAN?$AAT@
	push	0
	call	DWORD PTR __imp__MessageBoxW@16
; Line 74
	mov	eax, DWORD PTR _csut_TFX_LastProbe
	mov	DWORD PTR [eax], 82			; 00000052H
	mov	ecx, DWORD PTR _csut_TFX_CoverageBuffer
	mov	BYTE PTR [ecx+82], 49			; 00000031H
	xor	eax, eax
	jmp	$LN9@WinMain
	jmp	SHORT $LN7@WinMain
$LN8@WinMain:
; Line 75
	mov	eax, DWORD PTR _csut_TFX_LastProbe
	mov	DWORD PTR [eax], 73			; 00000049H
	mov	ecx, DWORD PTR _csut_TFX_CoverageBuffer
	mov	BYTE PTR [ecx+73], 49			; 00000031H
$LN7@WinMain:
; Line 77
	mov	eax, DWORD PTR _szCmdLine$[ebp]
	push	eax
	mov	ecx, DWORD PTR _hInstance$[ebp]
	push	ecx
	push	0
	push	0
	push	-2147483648				; 80000000H
	push	-2147483648				; 80000000H
	push	-2147483648				; 80000000H
	push	-2147483648				; 80000000H
	push	13565952				; 00cf0000H
	push	0
	push	OFFSET _szAppName
	push	0
	call	DWORD PTR __imp__CreateWindowExW@48
	mov	DWORD PTR _hwnd$[ebp], eax
; Line 81
	mov	eax, DWORD PTR _iCmdShow$[ebp]
	push	eax
	mov	ecx, DWORD PTR _hwnd$[ebp]
	push	ecx
	call	DWORD PTR __imp__ShowWindow@8
; Line 82
	mov	eax, DWORD PTR _hwnd$[ebp]
	push	eax
	call	DWORD PTR __imp__UpdateWindow@4
; Line 84
	push	OFFSET _szAppName
	mov	eax, DWORD PTR _hInstance$[ebp]
	push	eax
	call	DWORD PTR __imp__LoadAcceleratorsW@8
	mov	DWORD PTR _hAccel$[ebp], eax
	mov	eax, DWORD PTR _csut_TFX_LastProbe
	mov	DWORD PTR [eax], 74			; 0000004aH
	mov	ecx, DWORD PTR _csut_TFX_CoverageBuffer
	mov	BYTE PTR [ecx+74], 49			; 00000031H
$LN6@WinMain:
; Line 86
	push	0
	push	0
	push	0
	lea	eax, DWORD PTR _msg$[ebp]
	push	eax
	call	DWORD PTR __imp__GetMessageW@16
	test	eax, eax
	je	$LN5@WinMain
; Line 87
	mov	eax, DWORD PTR _csut_TFX_LastProbe
	mov	DWORD PTR [eax], 80			; 00000050H
	mov	ecx, DWORD PTR _csut_TFX_CoverageBuffer
	mov	BYTE PTR [ecx+80], 49			; 00000031H
; Line 88
	cmp	DWORD PTR _hDlgModeless, 0
	jne	SHORT $LN13@WinMain
	mov	eax, DWORD PTR _csut_TFX_LastProbe
	mov	DWORD PTR [eax], 255			; 000000ffH
	mov	ecx, DWORD PTR _csut_TFX_CoverageBuffer
	mov	BYTE PTR [ecx+255], 49			; 00000031H
	mov	DWORD PTR tv153[ebp], 1
	jmp	SHORT $LN14@WinMain
$LN13@WinMain:
	lea	edx, DWORD PTR _msg$[ebp]
	push	edx
	mov	eax, DWORD PTR _hDlgModeless
	push	eax
	call	DWORD PTR __imp__IsDialogMessageW@8
	test	eax, eax
	je	SHORT $LN11@WinMain
	mov	ecx, DWORD PTR _csut_TFX_LastProbe
	mov	DWORD PTR [ecx], 256			; 00000100H
	mov	edx, DWORD PTR _csut_TFX_CoverageBuffer
	mov	BYTE PTR [edx+256], 49			; 00000031H
	mov	DWORD PTR tv152[ebp], 0
	jmp	SHORT $LN12@WinMain
$LN11@WinMain:
	mov	eax, DWORD PTR _csut_TFX_LastProbe
	mov	DWORD PTR [eax], 257			; 00000101H
	mov	ecx, DWORD PTR _csut_TFX_CoverageBuffer
	mov	BYTE PTR [ecx+257], 49			; 00000031H
	mov	DWORD PTR tv152[ebp], 1
$LN12@WinMain:
	mov	edx, DWORD PTR tv152[ebp]
	mov	DWORD PTR tv153[ebp], edx
$LN14@WinMain:
	cmp	DWORD PTR tv153[ebp], 0
	je	$LN4@WinMain
; Line 89
	mov	eax, DWORD PTR _csut_TFX_LastProbe
	mov	DWORD PTR [eax], 78			; 0000004eH
	mov	ecx, DWORD PTR _csut_TFX_CoverageBuffer
	mov	BYTE PTR [ecx+78], 49			; 00000031H
; Line 90
	lea	eax, DWORD PTR _msg$[ebp]
	push	eax
	mov	ecx, DWORD PTR _hAccel$[ebp]
	push	ecx
	mov	edx, DWORD PTR _hwnd$[ebp]
	push	edx
	call	DWORD PTR __imp__TranslateAcceleratorW@12
	test	eax, eax
	jne	SHORT $LN3@WinMain
; Line 91
	mov	eax, DWORD PTR _csut_TFX_LastProbe
	mov	DWORD PTR [eax], 76			; 0000004cH
	mov	ecx, DWORD PTR _csut_TFX_CoverageBuffer
	mov	BYTE PTR [ecx+76], 49			; 00000031H
; Line 92
	lea	eax, DWORD PTR _msg$[ebp]
	push	eax
	call	DWORD PTR __imp__TranslateMessage@4
; Line 93
	lea	eax, DWORD PTR _msg$[ebp]
	push	eax
	call	DWORD PTR __imp__DispatchMessageW@4
	mov	eax, DWORD PTR _csut_TFX_LastProbe
	mov	DWORD PTR [eax], 75			; 0000004bH
	mov	ecx, DWORD PTR _csut_TFX_CoverageBuffer
	mov	BYTE PTR [ecx+75], 49			; 00000031H
	jmp	SHORT $LN2@WinMain
$LN3@WinMain:
; Line 94
	mov	eax, DWORD PTR _csut_TFX_LastProbe
	mov	DWORD PTR [eax], 77			; 0000004dH
	mov	ecx, DWORD PTR _csut_TFX_CoverageBuffer
	mov	BYTE PTR [ecx+77], 49			; 00000031H
$LN2@WinMain:
	jmp	SHORT $LN1@WinMain
$LN4@WinMain:
; Line 95
	mov	eax, DWORD PTR _csut_TFX_LastProbe
	mov	DWORD PTR [eax], 79			; 0000004fH
	mov	ecx, DWORD PTR _csut_TFX_CoverageBuffer
	mov	BYTE PTR [ecx+79], 49			; 00000031H
$LN1@WinMain:
	jmp	$LN6@WinMain
$LN5@WinMain:
; Line 96
	mov	eax, DWORD PTR _csut_TFX_LastProbe
	mov	DWORD PTR [eax], 81			; 00000051H
	mov	ecx, DWORD PTR _csut_TFX_CoverageBuffer
	mov	BYTE PTR [ecx+81], 49			; 00000031H
; Line 97
	mov	eax, DWORD PTR _msg$[ebp+8]
	mov	DWORD PTR _csut_ret$77233[ebp], eax
	mov	eax, DWORD PTR _csut_TFX_LastProbe
	mov	DWORD PTR [eax], 83			; 00000053H
	mov	ecx, DWORD PTR _csut_TFX_CoverageBuffer
	mov	BYTE PTR [ecx+83], 49			; 00000031H
	mov	eax, DWORD PTR _csut_ret$77233[ebp]
$LN9@WinMain:
; Line 98
	pop	edi
	pop	esi
	pop	ebx
	mov	esp, ebp
	pop	ebp
	ret	16					; 00000010H
_WinMain@16 ENDP
_TEXT	ENDS
PUBLIC	??_C@_1BA@JNCDCOGG@?$AA?$CF?$AAs?$AA?5?$AA?9?$AA?5?$AA?$CF?$AAs?$AA?$AA@ ; `string'
PUBLIC	??_C@_1BG@GPLLHJIH@?$AA?$CI?$AAu?$AAn?$AAt?$AAi?$AAt?$AAl?$AAe?$AAd?$AA?$CJ?$AA?$AA@ ; `string'
PUBLIC	__$ArrayPad$
PUBLIC	_DoCaption
EXTRN	__imp__SetWindowTextW@8:PROC
EXTRN	__imp__wsprintfW:PROC
EXTRN	___security_cookie:DWORD
EXTRN	@__security_check_cookie@4:PROC
;	COMDAT ??_C@_1BA@JNCDCOGG@?$AA?$CF?$AAs?$AA?5?$AA?9?$AA?5?$AA?$CF?$AAs?$AA?$AA@
CONST	SEGMENT
??_C@_1BA@JNCDCOGG@?$AA?$CF?$AAs?$AA?5?$AA?9?$AA?5?$AA?$CF?$AAs?$AA?$AA@ DB '%'
	DB	00H, 's', 00H, ' ', 00H, '-', 00H, ' ', 00H, '%', 00H, 's', 00H
	DB	00H, 00H					; `string'
CONST	ENDS
;	COMDAT ??_C@_1BG@GPLLHJIH@?$AA?$CI?$AAu?$AAn?$AAt?$AAi?$AAt?$AAl?$AAe?$AAd?$AA?$CJ?$AA?$AA@
CONST	SEGMENT
??_C@_1BG@GPLLHJIH@?$AA?$CI?$AAu?$AAn?$AAt?$AAi?$AAt?$AAl?$AAe?$AAd?$AA?$CJ?$AA?$AA@ DB '('
	DB	00H, 'u', 00H, 'n', 00H, 't', 00H, 'i', 00H, 't', 00H, 'l', 00H
	DB	'e', 00H, 'd', 00H, ')', 00H, 00H, 00H	; `string'
; Function compile flags: /Odtp /ZI
CONST	ENDS
;	COMDAT _DoCaption
_TEXT	SEGMENT
tv68 = -724						; size = 4
_szCaption$ = -656					; size = 648
_codescroll_17179871771$ = -8				; size = 4
__$ArrayPad$ = -4					; size = 4
_hwnd$ = 8						; size = 4
_szTitleName$ = 12					; size = 4
_DoCaption PROC						; COMDAT
; Line 107
	push	ebp
	mov	ebp, esp
	sub	esp, 724				; 000002d4H
	mov	eax, DWORD PTR ___security_cookie
	xor	eax, ebp
	mov	DWORD PTR __$ArrayPad$[ebp], eax
	push	ebx
	push	esi
	push	edi
	mov	eax, DWORD PTR _csut_TFX_LastProbe
	mov	DWORD PTR [eax], 84			; 00000054H
	mov	ecx, DWORD PTR _csut_TFX_CoverageBuffer
	mov	BYTE PTR [ecx+84], 49			; 00000031H
	mov	DWORD PTR _codescroll_17179871771$[ebp], 0
; Line 111
	mov	eax, DWORD PTR _szTitleName$[ebp]
	movzx	ecx, WORD PTR [eax]
	test	ecx, ecx
	je	SHORT $LN3@DoCaption
	mov	edx, DWORD PTR _szTitleName$[ebp]
	mov	DWORD PTR tv68[ebp], edx
	jmp	SHORT $LN4@DoCaption
$LN3@DoCaption:
	mov	DWORD PTR tv68[ebp], OFFSET ??_C@_1BG@GPLLHJIH@?$AA?$CI?$AAu?$AAn?$AAt?$AAi?$AAt?$AAl?$AAe?$AAd?$AA?$CJ?$AA?$AA@
$LN4@DoCaption:
	mov	eax, DWORD PTR tv68[ebp]
	push	eax
	push	OFFSET _szAppName
	push	OFFSET ??_C@_1BA@JNCDCOGG@?$AA?$CF?$AAs?$AA?5?$AA?9?$AA?5?$AA?$CF?$AAs?$AA?$AA@
	lea	ecx, DWORD PTR _szCaption$[ebp]
	push	ecx
	call	DWORD PTR __imp__wsprintfW
	add	esp, 16					; 00000010H
; Line 113
	lea	eax, DWORD PTR _szCaption$[ebp]
	push	eax
	mov	ecx, DWORD PTR _hwnd$[ebp]
	push	ecx
	call	DWORD PTR __imp__SetWindowTextW@8
	mov	eax, DWORD PTR _csut_TFX_LastProbe
	mov	DWORD PTR [eax], 85			; 00000055H
	mov	ecx, DWORD PTR _csut_TFX_CoverageBuffer
	mov	BYTE PTR [ecx+85], 49			; 00000031H
; Line 114
	pop	edi
	pop	esi
	pop	ebx
	mov	ecx, DWORD PTR __$ArrayPad$[ebp]
	xor	ecx, ebp
	call	@__security_check_cookie@4
	mov	esp, ebp
	pop	ebp
	ret	0
_DoCaption ENDP
_TEXT	ENDS
PUBLIC	__$ArrayPad$
PUBLIC	_OkMessage
; Function compile flags: /Odtp /ZI
;	COMDAT _OkMessage
_TEXT	SEGMENT
tv68 = -724						; size = 4
_szBuffer$ = -656					; size = 648
_codescroll_17179871772$ = -8				; size = 4
__$ArrayPad$ = -4					; size = 4
_hwnd$ = 8						; size = 4
_szMessage$ = 12					; size = 4
_szTitleName$ = 16					; size = 4
_OkMessage PROC						; COMDAT
; Line 123
	push	ebp
	mov	ebp, esp
	sub	esp, 724				; 000002d4H
	mov	eax, DWORD PTR ___security_cookie
	xor	eax, ebp
	mov	DWORD PTR __$ArrayPad$[ebp], eax
	push	ebx
	push	esi
	push	edi
	mov	eax, DWORD PTR _csut_TFX_LastProbe
	mov	DWORD PTR [eax], 86			; 00000056H
	mov	ecx, DWORD PTR _csut_TFX_CoverageBuffer
	mov	BYTE PTR [ecx+86], 49			; 00000031H
	mov	DWORD PTR _codescroll_17179871772$[ebp], 0
; Line 126
	mov	eax, DWORD PTR _szTitleName$[ebp]
	movzx	ecx, WORD PTR [eax]
	test	ecx, ecx
	je	SHORT $LN3@OkMessage
	mov	edx, DWORD PTR _szTitleName$[ebp]
	mov	DWORD PTR tv68[ebp], edx
	jmp	SHORT $LN4@OkMessage
$LN3@OkMessage:
	mov	DWORD PTR tv68[ebp], OFFSET ??_C@_1BG@GPLLHJIH@?$AA?$CI?$AAu?$AAn?$AAt?$AAi?$AAt?$AAl?$AAe?$AAd?$AA?$CJ?$AA?$AA@
$LN4@OkMessage:
	mov	eax, DWORD PTR tv68[ebp]
	push	eax
	mov	ecx, DWORD PTR _szMessage$[ebp]
	push	ecx
	lea	edx, DWORD PTR _szBuffer$[ebp]
	push	edx
	call	DWORD PTR __imp__wsprintfW
	add	esp, 12					; 0000000cH
; Line 128
	push	48					; 00000030H
	push	OFFSET _szAppName
	lea	eax, DWORD PTR _szBuffer$[ebp]
	push	eax
	mov	ecx, DWORD PTR _hwnd$[ebp]
	push	ecx
	call	DWORD PTR __imp__MessageBoxW@16
	mov	eax, DWORD PTR _csut_TFX_LastProbe
	mov	DWORD PTR [eax], 87			; 00000057H
	mov	ecx, DWORD PTR _csut_TFX_CoverageBuffer
	mov	BYTE PTR [ecx+87], 49			; 00000031H
; Line 129
	pop	edi
	pop	esi
	pop	ebx
	mov	ecx, DWORD PTR __$ArrayPad$[ebp]
	xor	ecx, ebp
	call	@__security_check_cookie@4
	mov	esp, ebp
	pop	ebp
	ret	0
_OkMessage ENDP
_TEXT	ENDS
PUBLIC	??_C@_1DI@DLBHMCAI@?$AAS?$AAa?$AAv?$AAe?$AA?5?$AAc?$AAu?$AAr?$AAr?$AAe?$AAn?$AAt?$AA?5?$AAc?$AAh?$AAa?$AAn?$AAg?$AAe?$AAs?$AA?5?$AAi?$AAn?$AA?5?$AA?$CF?$AAs?$AA?$DP?$AA?$AA@ ; `string'
PUBLIC	__$ArrayPad$
PUBLIC	_AskAboutSave
EXTRN	__imp__SendMessageW@16:PROC
;	COMDAT ??_C@_1DI@DLBHMCAI@?$AAS?$AAa?$AAv?$AAe?$AA?5?$AAc?$AAu?$AAr?$AAr?$AAe?$AAn?$AAt?$AA?5?$AAc?$AAh?$AAa?$AAn?$AAg?$AAe?$AAs?$AA?5?$AAi?$AAn?$AA?5?$AA?$CF?$AAs?$AA?$DP?$AA?$AA@
CONST	SEGMENT
??_C@_1DI@DLBHMCAI@?$AAS?$AAa?$AAv?$AAe?$AA?5?$AAc?$AAu?$AAr?$AAr?$AAe?$AAn?$AAt?$AA?5?$AAc?$AAh?$AAa?$AAn?$AAg?$AAe?$AAs?$AA?5?$AAi?$AAn?$AA?5?$AA?$CF?$AAs?$AA?$DP?$AA?$AA@ DB 'S'
	DB	00H, 'a', 00H, 'v', 00H, 'e', 00H, ' ', 00H, 'c', 00H, 'u', 00H
	DB	'r', 00H, 'r', 00H, 'e', 00H, 'n', 00H, 't', 00H, ' ', 00H, 'c'
	DB	00H, 'h', 00H, 'a', 00H, 'n', 00H, 'g', 00H, 'e', 00H, 's', 00H
	DB	' ', 00H, 'i', 00H, 'n', 00H, ' ', 00H, '%', 00H, 's', 00H, '?'
	DB	00H, 00H, 00H				; `string'
; Function compile flags: /Odtp /ZI
CONST	ENDS
;	COMDAT _AskAboutSave
_TEXT	SEGMENT
tv68 = -732						; size = 4
_csut_ret$77268 = -664					; size = 2
_iReturn$ = -660					; size = 4
_szBuffer$ = -656					; size = 648
_codescroll_17179871773$ = -8				; size = 4
__$ArrayPad$ = -4					; size = 4
_hwnd$ = 8						; size = 4
_szTitleName$ = 12					; size = 4
_AskAboutSave PROC					; COMDAT
; Line 138
	push	ebp
	mov	ebp, esp
	sub	esp, 732				; 000002dcH
	mov	eax, DWORD PTR ___security_cookie
	xor	eax, ebp
	mov	DWORD PTR __$ArrayPad$[ebp], eax
	push	ebx
	push	esi
	push	edi
	mov	eax, DWORD PTR _csut_TFX_LastProbe
	mov	DWORD PTR [eax], 88			; 00000058H
	mov	ecx, DWORD PTR _csut_TFX_CoverageBuffer
	mov	BYTE PTR [ecx+88], 49			; 00000031H
	mov	DWORD PTR _codescroll_17179871773$[ebp], 0
; Line 143
	mov	eax, DWORD PTR _szTitleName$[ebp]
	movzx	ecx, WORD PTR [eax]
	test	ecx, ecx
	je	SHORT $LN7@AskAboutSa
	mov	edx, DWORD PTR _szTitleName$[ebp]
	mov	DWORD PTR tv68[ebp], edx
	jmp	SHORT $LN8@AskAboutSa
$LN7@AskAboutSa:
	mov	DWORD PTR tv68[ebp], OFFSET ??_C@_1BG@GPLLHJIH@?$AA?$CI?$AAu?$AAn?$AAt?$AAi?$AAt?$AAl?$AAe?$AAd?$AA?$CJ?$AA?$AA@
$LN8@AskAboutSa:
	mov	eax, DWORD PTR tv68[ebp]
	push	eax
	push	OFFSET ??_C@_1DI@DLBHMCAI@?$AAS?$AAa?$AAv?$AAe?$AA?5?$AAc?$AAu?$AAr?$AAr?$AAe?$AAn?$AAt?$AA?5?$AAc?$AAh?$AAa?$AAn?$AAg?$AAe?$AAs?$AA?5?$AAi?$AAn?$AA?5?$AA?$CF?$AAs?$AA?$DP?$AA?$AA@
	lea	ecx, DWORD PTR _szBuffer$[ebp]
	push	ecx
	call	DWORD PTR __imp__wsprintfW
	add	esp, 12					; 0000000cH
; Line 146
	push	35					; 00000023H
	push	OFFSET _szAppName
	lea	eax, DWORD PTR _szBuffer$[ebp]
	push	eax
	mov	ecx, DWORD PTR _hwnd$[ebp]
	push	ecx
	call	DWORD PTR __imp__MessageBoxW@16
	mov	DWORD PTR _iReturn$[ebp], eax
	mov	eax, DWORD PTR _csut_TFX_LastProbe
	mov	DWORD PTR [eax], 89			; 00000059H
	mov	ecx, DWORD PTR _csut_TFX_CoverageBuffer
	mov	BYTE PTR [ecx+89], 49			; 00000031H
; Line 148
	cmp	DWORD PTR _iReturn$[ebp], 6
	jne	SHORT $LN4@AskAboutSa
; Line 149
	mov	eax, DWORD PTR _csut_TFX_LastProbe
	mov	DWORD PTR [eax], 93			; 0000005dH
	mov	ecx, DWORD PTR _csut_TFX_CoverageBuffer
	mov	BYTE PTR [ecx+93], 49			; 00000031H
	push	0
	push	40003					; 00009c43H
	push	273					; 00000111H
	mov	eax, DWORD PTR _hwnd$[ebp]
	push	eax
	call	DWORD PTR __imp__SendMessageW@16
	test	eax, eax
	jne	SHORT $LN3@AskAboutSa
; Line 150
	mov	eax, DWORD PTR _csut_TFX_LastProbe
	mov	DWORD PTR [eax], 91			; 0000005bH
	mov	ecx, DWORD PTR _csut_TFX_CoverageBuffer
	mov	BYTE PTR [ecx+91], 49			; 00000031H
	mov	DWORD PTR _iReturn$[ebp], 2
	mov	eax, DWORD PTR _csut_TFX_LastProbe
	mov	DWORD PTR [eax], 90			; 0000005aH
	mov	ecx, DWORD PTR _csut_TFX_CoverageBuffer
	mov	BYTE PTR [ecx+90], 49			; 00000031H
	jmp	SHORT $LN2@AskAboutSa
$LN3@AskAboutSa:
	mov	eax, DWORD PTR _csut_TFX_LastProbe
	mov	DWORD PTR [eax], 92			; 0000005cH
	mov	ecx, DWORD PTR _csut_TFX_CoverageBuffer
	mov	BYTE PTR [ecx+92], 49			; 00000031H
$LN2@AskAboutSa:
	jmp	SHORT $LN1@AskAboutSa
$LN4@AskAboutSa:
	mov	eax, DWORD PTR _csut_TFX_LastProbe
	mov	DWORD PTR [eax], 94			; 0000005eH
	mov	ecx, DWORD PTR _csut_TFX_CoverageBuffer
	mov	BYTE PTR [ecx+94], 49			; 00000031H
$LN1@AskAboutSa:
; Line 152
	mov	ax, WORD PTR _iReturn$[ebp]
	mov	WORD PTR _csut_ret$77268[ebp], ax
	mov	eax, DWORD PTR _csut_TFX_LastProbe
	mov	DWORD PTR [eax], 95			; 0000005fH
	mov	ecx, DWORD PTR _csut_TFX_CoverageBuffer
	mov	BYTE PTR [ecx+95], 49			; 00000031H
	mov	ax, WORD PTR _csut_ret$77268[ebp]
; Line 153
	pop	edi
	pop	esi
	pop	ebx
	mov	ecx, DWORD PTR __$ArrayPad$[ebp]
	xor	ecx, ebp
	call	@__security_check_cookie@4
	mov	esp, ebp
	pop	ebp
	ret	0
_AskAboutSave ENDP
_TEXT	ENDS
PUBLIC	??_C@_1CA@MMKCIGOJ@?$AAT?$AAe?$AAx?$AAt?$AA?5?$AAn?$AAo?$AAt?$AA?5?$AAf?$AAo?$AAu?$AAn?$AAd?$AA?$CB?$AA?$AA@ ; `string'
PUBLIC	??_C@_1BC@NGEJEGGC@?$AAA?$AAb?$AAo?$AAu?$AAt?$AAB?$AAo?$AAx?$AA?$AA@ ; `string'
PUBLIC	_AboutDlgProc@16
PUBLIC	??_C@_1DE@INPPLNLA@?$AAH?$AAe?$AAl?$AAp?$AA?5?$AAn?$AAo?$AAt?$AA?5?$AAy?$AAe?$AAt?$AA?5?$AAi?$AAm?$AAp?$AAl?$AAe?$AAm?$AAe?$AAn?$AAt?$AAe?$AAd?$AA?$CB?$AA?$AA@ ; `string'
PUBLIC	??_C@_1DA@EGMMMDIF@?$AAC?$AAo?$AAu?$AAl?$AAd?$AA?5?$AAn?$AAo?$AAt?$AA?5?$AAp?$AAr?$AAi?$AAn?$AAt?$AA?5?$AAf?$AAi?$AAl?$AAe?$AA?5?$AA?$CF?$AAs?$AA?$AA@ ; `string'
PUBLIC	??_C@_1DA@PJIAAFHE@?$AAC?$AAo?$AAu?$AAl?$AAd?$AA?5?$AAn?$AAo?$AAt?$AA?5?$AAw?$AAr?$AAi?$AAt?$AAe?$AA?5?$AAf?$AAi?$AAl?$AAe?$AA?5?$AA?$CF?$AAs?$AA?$AA@ ; `string'
PUBLIC	??_C@_1DA@EBEKDLNF@?$AAC?$AAo?$AAu?$AAl?$AAd?$AA?5?$AAn?$AAo?$AAt?$AA?5?$AAr?$AAe?$AAa?$AAd?$AA?5?$AAf?$AAi?$AAl?$AAe?$AA?5?$AA?$CF?$AAs?$AA?$CB?$AA?$AA@ ; `string'
PUBLIC	??_C@_13NOLLCAOD@?$AA?$AA?$AA?$AA@		; `string'
PUBLIC	??_C@_1DG@HAEOJLAF@?$AAE?$AAd?$AAi?$AAt?$AA?5?$AAc?$AAo?$AAn?$AAt?$AAr?$AAo?$AAl?$AA?5?$AAo?$AAu?$AAt?$AA?5?$AAo?$AAf?$AA?5?$AAs?$AAp?$AAa?$AAc?$AAe?$AA?4?$AA?$AA@ ; `string'
PUBLIC	??_C@_1CI@IGMCLEED@?$AAc?$AAo?$AAm?$AAm?$AAd?$AAl?$AAg?$AA_?$AAF?$AAi?$AAn?$AAd?$AAR?$AAe?$AAp?$AAl?$AAa?$AAc?$AAe?$AA?$AA@ ; `string'
PUBLIC	??_C@_19LELMJPKF@?$AAe?$AAd?$AAi?$AAt?$AA?$AA@	; `string'
EXTRN	__imp__DefWindowProcW@16:PROC
EXTRN	_PopFindReplaceText:PROC
EXTRN	_PopFindFindText:PROC
EXTRN	__imp__PostQuitMessage@4:PROC
EXTRN	_PopFontDeinitialize:PROC
EXTRN	__imp__DestroyWindow@4:PROC
EXTRN	__imp__DialogBoxParamW@20:PROC
EXTRN	_PopFontSetFont:PROC
EXTRN	_PopFontChooseFont:PROC
EXTRN	_PopFindReplaceDlg:PROC
EXTRN	_PopFindNextText:PROC
EXTRN	_PopFindValidFind:PROC
EXTRN	_PopFindFindDlg:PROC
EXTRN	_PopPrntPrintFile:PROC
EXTRN	_PopFileSaveDlg:PROC
EXTRN	_PopFileWrite:PROC
EXTRN	_PopFileRead:PROC
EXTRN	_PopFileOpenDlg:PROC
EXTRN	__imp__IsClipboardFormatAvailable@4:PROC
EXTRN	__imp__EnableMenuItem@12:PROC
EXTRN	__imp__MoveWindow@24:PROC
EXTRN	__imp__SetFocus@4:PROC
EXTRN	__imp__RegisterWindowMessageW@4:PROC
EXTRN	_PopFontInitialize:PROC
EXTRN	_PopFileInitialize:PROC
_BSS	SEGMENT
?iOffset@?1??WndProc@@9@9 DD 01H DUP (?)		; `WndProc'::`2'::iOffset
?szFileName@?1??WndProc@@9@9 DW 0104H DUP (?)		; `WndProc'::`2'::szFileName
?szTitleName@?1??WndProc@@9@9 DW 0104H DUP (?)		; `WndProc'::`2'::szTitleName
?messageFindReplace@?1??WndProc@@9@9 DD 01H DUP (?)	; `WndProc'::`2'::messageFindReplace
?hwndEdit@?1??WndProc@@9@9 DD 01H DUP (?)		; `WndProc'::`2'::hwndEdit
?hInst@?1??WndProc@@9@9 DD 01H DUP (?)			; `WndProc'::`2'::hInst
_BSS	ENDS
;	COMDAT ??_C@_1CA@MMKCIGOJ@?$AAT?$AAe?$AAx?$AAt?$AA?5?$AAn?$AAo?$AAt?$AA?5?$AAf?$AAo?$AAu?$AAn?$AAd?$AA?$CB?$AA?$AA@
CONST	SEGMENT
??_C@_1CA@MMKCIGOJ@?$AAT?$AAe?$AAx?$AAt?$AA?5?$AAn?$AAo?$AAt?$AA?5?$AAf?$AAo?$AAu?$AAn?$AAd?$AA?$CB?$AA?$AA@ DB 'T'
	DB	00H, 'e', 00H, 'x', 00H, 't', 00H, ' ', 00H, 'n', 00H, 'o', 00H
	DB	't', 00H, ' ', 00H, 'f', 00H, 'o', 00H, 'u', 00H, 'n', 00H, 'd'
	DB	00H, '!', 00H, 00H, 00H			; `string'
CONST	ENDS
;	COMDAT ??_C@_1BC@NGEJEGGC@?$AAA?$AAb?$AAo?$AAu?$AAt?$AAB?$AAo?$AAx?$AA?$AA@
CONST	SEGMENT
??_C@_1BC@NGEJEGGC@?$AAA?$AAb?$AAo?$AAu?$AAt?$AAB?$AAo?$AAx?$AA?$AA@ DB 'A'
	DB	00H, 'b', 00H, 'o', 00H, 'u', 00H, 't', 00H, 'B', 00H, 'o', 00H
	DB	'x', 00H, 00H, 00H				; `string'
CONST	ENDS
;	COMDAT ??_C@_1DE@INPPLNLA@?$AAH?$AAe?$AAl?$AAp?$AA?5?$AAn?$AAo?$AAt?$AA?5?$AAy?$AAe?$AAt?$AA?5?$AAi?$AAm?$AAp?$AAl?$AAe?$AAm?$AAe?$AAn?$AAt?$AAe?$AAd?$AA?$CB?$AA?$AA@
CONST	SEGMENT
??_C@_1DE@INPPLNLA@?$AAH?$AAe?$AAl?$AAp?$AA?5?$AAn?$AAo?$AAt?$AA?5?$AAy?$AAe?$AAt?$AA?5?$AAi?$AAm?$AAp?$AAl?$AAe?$AAm?$AAe?$AAn?$AAt?$AAe?$AAd?$AA?$CB?$AA?$AA@ DB 'H'
	DB	00H, 'e', 00H, 'l', 00H, 'p', 00H, ' ', 00H, 'n', 00H, 'o', 00H
	DB	't', 00H, ' ', 00H, 'y', 00H, 'e', 00H, 't', 00H, ' ', 00H, 'i'
	DB	00H, 'm', 00H, 'p', 00H, 'l', 00H, 'e', 00H, 'm', 00H, 'e', 00H
	DB	'n', 00H, 't', 00H, 'e', 00H, 'd', 00H, '!', 00H, 00H, 00H ; `string'
CONST	ENDS
;	COMDAT ??_C@_1DA@EGMMMDIF@?$AAC?$AAo?$AAu?$AAl?$AAd?$AA?5?$AAn?$AAo?$AAt?$AA?5?$AAp?$AAr?$AAi?$AAn?$AAt?$AA?5?$AAf?$AAi?$AAl?$AAe?$AA?5?$AA?$CF?$AAs?$AA?$AA@
CONST	SEGMENT
??_C@_1DA@EGMMMDIF@?$AAC?$AAo?$AAu?$AAl?$AAd?$AA?5?$AAn?$AAo?$AAt?$AA?5?$AAp?$AAr?$AAi?$AAn?$AAt?$AA?5?$AAf?$AAi?$AAl?$AAe?$AA?5?$AA?$CF?$AAs?$AA?$AA@ DB 'C'
	DB	00H, 'o', 00H, 'u', 00H, 'l', 00H, 'd', 00H, ' ', 00H, 'n', 00H
	DB	'o', 00H, 't', 00H, ' ', 00H, 'p', 00H, 'r', 00H, 'i', 00H, 'n'
	DB	00H, 't', 00H, ' ', 00H, 'f', 00H, 'i', 00H, 'l', 00H, 'e', 00H
	DB	' ', 00H, '%', 00H, 's', 00H, 00H, 00H	; `string'
CONST	ENDS
;	COMDAT ??_C@_1DA@PJIAAFHE@?$AAC?$AAo?$AAu?$AAl?$AAd?$AA?5?$AAn?$AAo?$AAt?$AA?5?$AAw?$AAr?$AAi?$AAt?$AAe?$AA?5?$AAf?$AAi?$AAl?$AAe?$AA?5?$AA?$CF?$AAs?$AA?$AA@
CONST	SEGMENT
??_C@_1DA@PJIAAFHE@?$AAC?$AAo?$AAu?$AAl?$AAd?$AA?5?$AAn?$AAo?$AAt?$AA?5?$AAw?$AAr?$AAi?$AAt?$AAe?$AA?5?$AAf?$AAi?$AAl?$AAe?$AA?5?$AA?$CF?$AAs?$AA?$AA@ DB 'C'
	DB	00H, 'o', 00H, 'u', 00H, 'l', 00H, 'd', 00H, ' ', 00H, 'n', 00H
	DB	'o', 00H, 't', 00H, ' ', 00H, 'w', 00H, 'r', 00H, 'i', 00H, 't'
	DB	00H, 'e', 00H, ' ', 00H, 'f', 00H, 'i', 00H, 'l', 00H, 'e', 00H
	DB	' ', 00H, '%', 00H, 's', 00H, 00H, 00H	; `string'
CONST	ENDS
;	COMDAT ??_C@_1DA@EBEKDLNF@?$AAC?$AAo?$AAu?$AAl?$AAd?$AA?5?$AAn?$AAo?$AAt?$AA?5?$AAr?$AAe?$AAa?$AAd?$AA?5?$AAf?$AAi?$AAl?$AAe?$AA?5?$AA?$CF?$AAs?$AA?$CB?$AA?$AA@
CONST	SEGMENT
??_C@_1DA@EBEKDLNF@?$AAC?$AAo?$AAu?$AAl?$AAd?$AA?5?$AAn?$AAo?$AAt?$AA?5?$AAr?$AAe?$AAa?$AAd?$AA?5?$AAf?$AAi?$AAl?$AAe?$AA?5?$AA?$CF?$AAs?$AA?$CB?$AA?$AA@ DB 'C'
	DB	00H, 'o', 00H, 'u', 00H, 'l', 00H, 'd', 00H, ' ', 00H, 'n', 00H
	DB	'o', 00H, 't', 00H, ' ', 00H, 'r', 00H, 'e', 00H, 'a', 00H, 'd'
	DB	00H, ' ', 00H, 'f', 00H, 'i', 00H, 'l', 00H, 'e', 00H, ' ', 00H
	DB	'%', 00H, 's', 00H, '!', 00H, 00H, 00H	; `string'
CONST	ENDS
;	COMDAT ??_C@_13NOLLCAOD@?$AA?$AA?$AA?$AA@
CONST	SEGMENT
??_C@_13NOLLCAOD@?$AA?$AA?$AA?$AA@ DB 00H, 00H, 00H, 00H ; `string'
CONST	ENDS
;	COMDAT ??_C@_1DG@HAEOJLAF@?$AAE?$AAd?$AAi?$AAt?$AA?5?$AAc?$AAo?$AAn?$AAt?$AAr?$AAo?$AAl?$AA?5?$AAo?$AAu?$AAt?$AA?5?$AAo?$AAf?$AA?5?$AAs?$AAp?$AAa?$AAc?$AAe?$AA?4?$AA?$AA@
CONST	SEGMENT
??_C@_1DG@HAEOJLAF@?$AAE?$AAd?$AAi?$AAt?$AA?5?$AAc?$AAo?$AAn?$AAt?$AAr?$AAo?$AAl?$AA?5?$AAo?$AAu?$AAt?$AA?5?$AAo?$AAf?$AA?5?$AAs?$AAp?$AAa?$AAc?$AAe?$AA?4?$AA?$AA@ DB 'E'
	DB	00H, 'd', 00H, 'i', 00H, 't', 00H, ' ', 00H, 'c', 00H, 'o', 00H
	DB	'n', 00H, 't', 00H, 'r', 00H, 'o', 00H, 'l', 00H, ' ', 00H, 'o'
	DB	00H, 'u', 00H, 't', 00H, ' ', 00H, 'o', 00H, 'f', 00H, ' ', 00H
	DB	's', 00H, 'p', 00H, 'a', 00H, 'c', 00H, 'e', 00H, '.', 00H, 00H
	DB	00H						; `string'
CONST	ENDS
;	COMDAT ??_C@_1CI@IGMCLEED@?$AAc?$AAo?$AAm?$AAm?$AAd?$AAl?$AAg?$AA_?$AAF?$AAi?$AAn?$AAd?$AAR?$AAe?$AAp?$AAl?$AAa?$AAc?$AAe?$AA?$AA@
CONST	SEGMENT
??_C@_1CI@IGMCLEED@?$AAc?$AAo?$AAm?$AAm?$AAd?$AAl?$AAg?$AA_?$AAF?$AAi?$AAn?$AAd?$AAR?$AAe?$AAp?$AAl?$AAa?$AAc?$AAe?$AA?$AA@ DB 'c'
	DB	00H, 'o', 00H, 'm', 00H, 'm', 00H, 'd', 00H, 'l', 00H, 'g', 00H
	DB	'_', 00H, 'F', 00H, 'i', 00H, 'n', 00H, 'd', 00H, 'R', 00H, 'e'
	DB	00H, 'p', 00H, 'l', 00H, 'a', 00H, 'c', 00H, 'e', 00H, 00H, 00H ; `string'
CONST	ENDS
;	COMDAT ??_C@_19LELMJPKF@?$AAe?$AAd?$AAi?$AAt?$AA?$AA@
CONST	SEGMENT
??_C@_19LELMJPKF@?$AAe?$AAd?$AAi?$AAt?$AA?$AA@ DB 'e', 00H, 'd', 00H, 'i', 00H
	DB	't', 00H, 00H, 00H				; `string'
; Function compile flags: /Odtp /ZI
CONST	ENDS
;	COMDAT _WndProc@16
_TEXT	SEGMENT
tv527 = -96						; size = 4
tv483 = -96						; size = 4
tv464 = -96						; size = 4
tv270 = -96						; size = 4
tv248 = -96						; size = 4
tv208 = -96						; size = 4
tv529 = -92						; size = 4
tv480 = -92						; size = 4
tv461 = -92						; size = 4
tv267 = -92						; size = 4
tv245 = -92						; size = 4
tv235 = -92						; size = 4
tv215 = -92						; size = 4
tv205 = -92						; size = 4
tv145 = -92						; size = 4
tv66 = -92						; size = 4
_csut_ret$77432 = -24					; size = 4
_pfr$ = -20						; size = 4
_iEnable$ = -16						; size = 4
_iSelEnd$ = -12						; size = 4
_iSelBeg$ = -8						; size = 4
_codescroll_17179871774$ = -4				; size = 4
_hwnd$ = 8						; size = 4
_message$ = 12						; size = 4
_wParam$ = 16						; size = 4
_lParam$ = 20						; size = 4
_WndProc@16 PROC					; COMDAT
; Line 162
	push	ebp
	mov	ebp, esp
	sub	esp, 96					; 00000060H
	push	ebx
	push	esi
	push	edi
	mov	eax, DWORD PTR _csut_TFX_LastProbe
	mov	DWORD PTR [eax], 96			; 00000060H
	mov	ecx, DWORD PTR _csut_TFX_CoverageBuffer
	mov	BYTE PTR [ecx+96], 49			; 00000031H
	mov	DWORD PTR _codescroll_17179871774$[ebp], 0
; Line 170
	mov	eax, DWORD PTR _csut_TFX_LastProbe
	mov	DWORD PTR [eax], 97			; 00000061H
	mov	ecx, DWORD PTR _csut_TFX_CoverageBuffer
	mov	BYTE PTR [ecx+97], 49			; 00000031H
; Line 172
	mov	eax, DWORD PTR _message$[ebp]
	mov	DWORD PTR tv66[ebp], eax
	cmp	DWORD PTR tv66[ebp], 16			; 00000010H
	ja	SHORT $LN111@WndProc
	cmp	DWORD PTR tv66[ebp], 16			; 00000010H
	je	$LN24@WndProc
	mov	ecx, DWORD PTR tv66[ebp]
	sub	ecx, 1
	mov	DWORD PTR tv66[ebp], ecx
	cmp	DWORD PTR tv66[ebp], 6
	ja	$LN17@WndProc
	mov	edx, DWORD PTR tv66[ebp]
	jmp	DWORD PTR $LN112@WndProc[edx*4]
$LN111@WndProc:
	cmp	DWORD PTR tv66[ebp], 17			; 00000011H
	je	$LN21@WndProc
	cmp	DWORD PTR tv66[ebp], 273		; 00000111H
	je	$LN74@WndProc
	cmp	DWORD PTR tv66[ebp], 279		; 00000117H
	je	$LN79@WndProc
	jmp	$LN17@WndProc
$LN82@WndProc:
; Line 174
	mov	eax, DWORD PTR _csut_TFX_LastProbe
	mov	DWORD PTR [eax], 195			; 000000c3H
	mov	ecx, DWORD PTR _csut_TFX_CoverageBuffer
	mov	BYTE PTR [ecx+195], 49			; 00000031H
; Line 175
	mov	eax, DWORD PTR _lParam$[ebp]
	mov	ecx, DWORD PTR [eax+4]
	mov	DWORD PTR ?hInst@?1??WndProc@@9@9, ecx
; Line 179
	push	0
	mov	eax, DWORD PTR ?hInst@?1??WndProc@@9@9
	push	eax
	push	1
	mov	ecx, DWORD PTR _hwnd$[ebp]
	push	ecx
	push	0
	push	0
	push	0
	push	0
	push	1353712068				; 50b001c4H
	push	0
	push	OFFSET ??_C@_19LELMJPKF@?$AAe?$AAd?$AAi?$AAt?$AA?$AA@
	push	0
	call	DWORD PTR __imp__CreateWindowExW@48
	mov	DWORD PTR ?hwndEdit@?1??WndProc@@9@9, eax
; Line 162
	push	0
	push	32000					; 00007d00H
	push	197					; 000000c5H
	mov	eax, DWORD PTR ?hwndEdit@?1??WndProc@@9@9
	push	eax
	call	DWORD PTR __imp__SendMessageW@16
; Line 166
	mov	eax, DWORD PTR _hwnd$[ebp]
	push	eax
	call	_PopFileInitialize
	add	esp, 4
; Line 167
	mov	eax, DWORD PTR ?hwndEdit@?1??WndProc@@9@9
	push	eax
	call	_PopFontInitialize
	add	esp, 4
; Line 169
	push	OFFSET ??_C@_1CI@IGMCLEED@?$AAc?$AAo?$AAm?$AAm?$AAd?$AAl?$AAg?$AA_?$AAF?$AAi?$AAn?$AAd?$AAR?$AAe?$AAp?$AAl?$AAa?$AAc?$AAe?$AA?$AA@
	call	DWORD PTR __imp__RegisterWindowMessageW@4
	mov	DWORD PTR ?messageFindReplace@?1??WndProc@@9@9, eax
; Line 171
	push	OFFSET ?szTitleName@?1??WndProc@@9@9
	mov	eax, DWORD PTR _hwnd$[ebp]
	push	eax
	call	_DoCaption
	add	esp, 8
; Line 172
	mov	eax, DWORD PTR _csut_TFX_LastProbe
	mov	DWORD PTR [eax], 207			; 000000cfH
	mov	ecx, DWORD PTR _csut_TFX_CoverageBuffer
	mov	BYTE PTR [ecx+207], 49			; 00000031H
	xor	eax, eax
	jmp	$LN85@WndProc
$LN81@WndProc:
; Line 174
	mov	eax, DWORD PTR _csut_TFX_LastProbe
	mov	DWORD PTR [eax], 196			; 000000c4H
	mov	ecx, DWORD PTR _csut_TFX_CoverageBuffer
	mov	BYTE PTR [ecx+196], 49			; 00000031H
; Line 175
	mov	eax, DWORD PTR ?hwndEdit@?1??WndProc@@9@9
	push	eax
	call	DWORD PTR __imp__SetFocus@4
; Line 176
	mov	eax, DWORD PTR _csut_TFX_LastProbe
	mov	DWORD PTR [eax], 208			; 000000d0H
	mov	ecx, DWORD PTR _csut_TFX_CoverageBuffer
	mov	BYTE PTR [ecx+208], 49			; 00000031H
	xor	eax, eax
	jmp	$LN85@WndProc
$LN80@WndProc:
; Line 178
	mov	eax, DWORD PTR _csut_TFX_LastProbe
	mov	DWORD PTR [eax], 197			; 000000c5H
	mov	ecx, DWORD PTR _csut_TFX_CoverageBuffer
	mov	BYTE PTR [ecx+197], 49			; 00000031H
; Line 179
	push	1
	mov	eax, DWORD PTR _lParam$[ebp]
	shr	eax, 16					; 00000010H
	and	eax, 65535				; 0000ffffH
	movzx	ecx, ax
	push	ecx
	mov	edx, DWORD PTR _lParam$[ebp]
	and	edx, 65535				; 0000ffffH
	movzx	eax, dx
	push	eax
	push	0
	push	0
	mov	ecx, DWORD PTR ?hwndEdit@?1??WndProc@@9@9
	push	ecx
	call	DWORD PTR __imp__MoveWindow@24
; Line 180
	mov	eax, DWORD PTR _csut_TFX_LastProbe
	mov	DWORD PTR [eax], 209			; 000000d1H
	mov	ecx, DWORD PTR _csut_TFX_CoverageBuffer
	mov	BYTE PTR [ecx+209], 49			; 00000031H
	xor	eax, eax
	jmp	$LN85@WndProc
$LN79@WndProc:
; Line 182
	mov	eax, DWORD PTR _csut_TFX_LastProbe
	mov	DWORD PTR [eax], 198			; 000000c6H
	mov	ecx, DWORD PTR _csut_TFX_CoverageBuffer
	mov	BYTE PTR [ecx+198], 49			; 00000031H
	mov	eax, DWORD PTR _csut_TFX_LastProbe
	mov	DWORD PTR [eax], 98			; 00000062H
	mov	ecx, DWORD PTR _csut_TFX_CoverageBuffer
	mov	BYTE PTR [ecx+98], 49			; 00000031H
; Line 183
	mov	eax, DWORD PTR _lParam$[ebp]
	mov	DWORD PTR tv145[ebp], eax
	cmp	DWORD PTR tv145[ebp], 1
	je	SHORT $LN76@WndProc
	cmp	DWORD PTR tv145[ebp], 2
	je	$LN75@WndProc
	jmp	$LN77@WndProc
$LN76@WndProc:
; Line 185
	mov	eax, DWORD PTR _csut_TFX_LastProbe
	mov	DWORD PTR [eax], 99			; 00000063H
	mov	ecx, DWORD PTR _csut_TFX_CoverageBuffer
	mov	BYTE PTR [ecx+99], 49			; 00000031H
; Line 191
	push	0
	push	0
	push	198					; 000000c6H
	mov	eax, DWORD PTR ?hwndEdit@?1??WndProc@@9@9
	push	eax
	call	DWORD PTR __imp__SendMessageW@16
	neg	eax
	sbb	eax, eax
	add	eax, 1
	push	eax
	push	40007					; 00009c47H
	mov	ecx, DWORD PTR _wParam$[ebp]
	push	ecx
	call	DWORD PTR __imp__EnableMenuItem@12
; Line 197
	push	1
	call	DWORD PTR __imp__IsClipboardFormatAvailable@4
	neg	eax
	sbb	eax, eax
	add	eax, 1
	push	eax
	push	40010					; 00009c4aH
	mov	eax, DWORD PTR _wParam$[ebp]
	push	eax
	call	DWORD PTR __imp__EnableMenuItem@12
; Line 202
	lea	eax, DWORD PTR _iSelEnd$[ebp]
	push	eax
	lea	ecx, DWORD PTR _iSelBeg$[ebp]
	push	ecx
	push	176					; 000000b0H
	mov	edx, DWORD PTR ?hwndEdit@?1??WndProc@@9@9
	push	edx
	call	DWORD PTR __imp__SendMessageW@16
; Line 204
	mov	eax, DWORD PTR _iSelBeg$[ebp]
	xor	ecx, ecx
	cmp	eax, DWORD PTR _iSelEnd$[ebp]
	sete	cl
	mov	DWORD PTR _iEnable$[ebp], ecx
; Line 206
	mov	eax, DWORD PTR _iEnable$[ebp]
	push	eax
	push	40008					; 00009c48H
	mov	ecx, DWORD PTR _wParam$[ebp]
	push	ecx
	call	DWORD PTR __imp__EnableMenuItem@12
; Line 207
	mov	eax, DWORD PTR _iEnable$[ebp]
	push	eax
	push	40009					; 00009c49H
	mov	ecx, DWORD PTR _wParam$[ebp]
	push	ecx
	call	DWORD PTR __imp__EnableMenuItem@12
; Line 208
	mov	eax, DWORD PTR _iEnable$[ebp]
	push	eax
	push	40011					; 00009c4bH
	mov	ecx, DWORD PTR _wParam$[ebp]
	push	ecx
	call	DWORD PTR __imp__EnableMenuItem@12
; Line 209
	mov	eax, DWORD PTR _csut_TFX_LastProbe
	mov	DWORD PTR [eax], 102			; 00000066H
	mov	ecx, DWORD PTR _csut_TFX_CoverageBuffer
	mov	BYTE PTR [ecx+102], 49			; 00000031H
	jmp	$codescroll_218002_11_218042_11$77325
$LN75@WndProc:
; Line 211
	mov	eax, DWORD PTR _csut_TFX_LastProbe
	mov	DWORD PTR [eax], 100			; 00000064H
	mov	ecx, DWORD PTR _csut_TFX_CoverageBuffer
	mov	BYTE PTR [ecx+100], 49			; 00000031H
; Line 217
	xor	eax, eax
	cmp	DWORD PTR _hDlgModeless, 0
	setne	al
	mov	DWORD PTR _iEnable$[ebp], eax
; Line 219
	mov	eax, DWORD PTR _iEnable$[ebp]
	push	eax
	push	40013					; 00009c4dH
	mov	ecx, DWORD PTR _wParam$[ebp]
	push	ecx
	call	DWORD PTR __imp__EnableMenuItem@12
; Line 220
	mov	eax, DWORD PTR _iEnable$[ebp]
	push	eax
	push	40014					; 00009c4eH
	mov	ecx, DWORD PTR _wParam$[ebp]
	push	ecx
	call	DWORD PTR __imp__EnableMenuItem@12
; Line 221
	mov	eax, DWORD PTR _iEnable$[ebp]
	push	eax
	push	40015					; 00009c4fH
	mov	ecx, DWORD PTR _wParam$[ebp]
	push	ecx
	call	DWORD PTR __imp__EnableMenuItem@12
; Line 222
	mov	eax, DWORD PTR _csut_TFX_LastProbe
	mov	DWORD PTR [eax], 103			; 00000067H
	mov	ecx, DWORD PTR _csut_TFX_CoverageBuffer
	mov	BYTE PTR [ecx+103], 49			; 00000031H
	jmp	SHORT $codescroll_218002_11_218042_11$77325
	jmp	SHORT $codescroll_218002_11_218042_11$77325
$LN77@WndProc:
; Line 223
	mov	eax, DWORD PTR _csut_TFX_LastProbe
	mov	DWORD PTR [eax], 101			; 00000065H
	mov	ecx, DWORD PTR _csut_TFX_CoverageBuffer
	mov	BYTE PTR [ecx+101], 49			; 00000031H
$codescroll_218002_11_218042_11$77325:
; Line 224
	mov	eax, DWORD PTR _csut_TFX_LastProbe
	mov	DWORD PTR [eax], 210			; 000000d2H
	mov	ecx, DWORD PTR _csut_TFX_CoverageBuffer
	mov	BYTE PTR [ecx+210], 49			; 00000031H
	xor	eax, eax
	jmp	$LN85@WndProc
$LN74@WndProc:
; Line 226
	mov	eax, DWORD PTR _csut_TFX_LastProbe
	mov	DWORD PTR [eax], 199			; 000000c7H
	mov	ecx, DWORD PTR _csut_TFX_CoverageBuffer
	mov	BYTE PTR [ecx+199], 49			; 00000031H
	mov	eax, DWORD PTR _csut_TFX_LastProbe
	mov	DWORD PTR [eax], 104			; 00000068H
	mov	ecx, DWORD PTR _csut_TFX_CoverageBuffer
	mov	BYTE PTR [ecx+104], 49			; 00000031H
; Line 229
	cmp	DWORD PTR _lParam$[ebp], 0
	je	SHORT $LN89@WndProc
	mov	eax, DWORD PTR _wParam$[ebp]
	and	eax, 65535				; 0000ffffH
	movzx	ecx, ax
	cmp	ecx, 1
	jne	SHORT $LN87@WndProc
	mov	edx, DWORD PTR _csut_TFX_LastProbe
	mov	DWORD PTR [edx], 258			; 00000102H
	mov	eax, DWORD PTR _csut_TFX_CoverageBuffer
	mov	BYTE PTR [eax+258], 49			; 00000031H
	mov	DWORD PTR tv205[ebp], 1
	jmp	SHORT $LN88@WndProc
$LN87@WndProc:
	mov	ecx, DWORD PTR _csut_TFX_LastProbe
	mov	DWORD PTR [ecx], 259			; 00000103H
	mov	edx, DWORD PTR _csut_TFX_CoverageBuffer
	mov	BYTE PTR [edx+259], 49			; 00000031H
	mov	DWORD PTR tv205[ebp], 0
$LN88@WndProc:
	mov	eax, DWORD PTR tv205[ebp]
	mov	DWORD PTR tv208[ebp], eax
	jmp	SHORT $LN90@WndProc
$LN89@WndProc:
	mov	ecx, DWORD PTR _csut_TFX_LastProbe
	mov	DWORD PTR [ecx], 260			; 00000104H
	mov	edx, DWORD PTR _csut_TFX_CoverageBuffer
	mov	BYTE PTR [edx+260], 49			; 00000031H
	mov	DWORD PTR tv208[ebp], 0
$LN90@WndProc:
	cmp	DWORD PTR tv208[ebp], 0
	je	$LN73@WndProc
; Line 230
	mov	eax, DWORD PTR _csut_TFX_LastProbe
	mov	DWORD PTR [eax], 110			; 0000006eH
	mov	ecx, DWORD PTR _csut_TFX_CoverageBuffer
	mov	BYTE PTR [ecx+110], 49			; 00000031H
; Line 231
	mov	eax, DWORD PTR _wParam$[ebp]
	shr	eax, 16					; 00000010H
	and	eax, 65535				; 0000ffffH
	movzx	ecx, ax
	mov	DWORD PTR tv215[ebp], ecx
	cmp	DWORD PTR tv215[ebp], 1024		; 00000400H
	je	SHORT $LN70@WndProc
	cmp	DWORD PTR tv215[ebp], 1280		; 00000500H
	je	SHORT $LN69@WndProc
	cmp	DWORD PTR tv215[ebp], 1281		; 00000501H
	je	SHORT $LN68@WndProc
	jmp	$LN71@WndProc
$LN70@WndProc:
; Line 233
	mov	eax, DWORD PTR _csut_TFX_LastProbe
	mov	DWORD PTR [eax], 106			; 0000006aH
	mov	ecx, DWORD PTR _csut_TFX_CoverageBuffer
	mov	BYTE PTR [ecx+106], 49			; 00000031H
; Line 234
	mov	DWORD PTR ?bNeedSave@?1??WndProc@@9@9, 1
; Line 235
	mov	eax, DWORD PTR _csut_TFX_LastProbe
	mov	DWORD PTR [eax], 211			; 000000d3H
	mov	ecx, DWORD PTR _csut_TFX_CoverageBuffer
	mov	BYTE PTR [ecx+211], 49			; 00000031H
	xor	eax, eax
	jmp	$LN85@WndProc
$LN69@WndProc:
; Line 237
	mov	eax, DWORD PTR _csut_TFX_LastProbe
	mov	DWORD PTR [eax], 107			; 0000006bH
	mov	ecx, DWORD PTR _csut_TFX_CoverageBuffer
	mov	BYTE PTR [ecx+107], 49			; 00000031H
	mov	eax, DWORD PTR _csut_TFX_LastProbe
	mov	DWORD PTR [eax], 105			; 00000069H
	mov	ecx, DWORD PTR _csut_TFX_CoverageBuffer
	mov	BYTE PTR [ecx+105], 49			; 00000031H
	jmp	SHORT $codescroll_218057_16$77342
$LN68@WndProc:
; Line 238
	mov	eax, DWORD PTR _csut_TFX_LastProbe
	mov	DWORD PTR [eax], 108			; 0000006cH
	mov	ecx, DWORD PTR _csut_TFX_CoverageBuffer
	mov	BYTE PTR [ecx+108], 49			; 00000031H
$codescroll_218057_16$77342:
; Line 240
	push	16					; 00000010H
	push	OFFSET _szAppName
	push	OFFSET ??_C@_1DG@HAEOJLAF@?$AAE?$AAd?$AAi?$AAt?$AA?5?$AAc?$AAo?$AAn?$AAt?$AAr?$AAo?$AAl?$AA?5?$AAo?$AAu?$AAt?$AA?5?$AAo?$AAf?$AA?5?$AAs?$AAp?$AAa?$AAc?$AAe?$AA?4?$AA?$AA@
	mov	eax, DWORD PTR _hwnd$[ebp]
	push	eax
	call	DWORD PTR __imp__MessageBoxW@16
; Line 241
	mov	eax, DWORD PTR _csut_TFX_LastProbe
	mov	DWORD PTR [eax], 212			; 000000d4H
	mov	ecx, DWORD PTR _csut_TFX_CoverageBuffer
	mov	BYTE PTR [ecx+212], 49			; 00000031H
	xor	eax, eax
	jmp	$LN85@WndProc
	jmp	SHORT $codescroll_218050_16_218061_16$77345
$LN71@WndProc:
; Line 242
	mov	eax, DWORD PTR _csut_TFX_LastProbe
	mov	DWORD PTR [eax], 109			; 0000006dH
	mov	ecx, DWORD PTR _csut_TFX_CoverageBuffer
	mov	BYTE PTR [ecx+109], 49			; 00000031H
$codescroll_218050_16_218061_16$77345:
; Line 243
	mov	eax, DWORD PTR _csut_TFX_LastProbe
	mov	DWORD PTR [eax], 204			; 000000ccH
	mov	ecx, DWORD PTR _csut_TFX_CoverageBuffer
	mov	BYTE PTR [ecx+204], 49			; 00000031H
	jmp	$codescroll_217971_6_218254_6$77346
	jmp	SHORT $LN67@WndProc
$LN73@WndProc:
; Line 244
	mov	eax, DWORD PTR _csut_TFX_LastProbe
	mov	DWORD PTR [eax], 111			; 0000006fH
	mov	ecx, DWORD PTR _csut_TFX_CoverageBuffer
	mov	BYTE PTR [ecx+111], 49			; 00000031H
$LN67@WndProc:
; Line 246
	mov	eax, DWORD PTR _wParam$[ebp]
	and	eax, 65535				; 0000ffffH
	movzx	ecx, ax
	mov	DWORD PTR tv235[ebp], ecx
	mov	edx, DWORD PTR tv235[ebp]
	sub	edx, 40001				; 00009c41H
	mov	DWORD PTR tv235[ebp], edx
	cmp	DWORD PTR tv235[ebp], 17		; 00000011H
	ja	$LN65@WndProc
	mov	eax, DWORD PTR tv235[ebp]
	jmp	DWORD PTR $LN113@WndProc[eax*4]
$LN64@WndProc:
; Line 250
	mov	eax, DWORD PTR _csut_TFX_LastProbe
	mov	DWORD PTR [eax], 147			; 00000093H
	mov	ecx, DWORD PTR _csut_TFX_CoverageBuffer
	mov	BYTE PTR [ecx+147], 49			; 00000031H
	mov	eax, DWORD PTR _csut_TFX_LastProbe
	mov	DWORD PTR [eax], 112			; 00000070H
	mov	ecx, DWORD PTR _csut_TFX_CoverageBuffer
	mov	BYTE PTR [ecx+112], 49			; 00000031H
; Line 251
	cmp	DWORD PTR ?bNeedSave@?1??WndProc@@9@9, 0
	je	SHORT $LN93@WndProc
	push	OFFSET ?szTitleName@?1??WndProc@@9@9
	mov	eax, DWORD PTR _hwnd$[ebp]
	push	eax
	call	_AskAboutSave
	add	esp, 8
	movsx	ecx, ax
	cmp	ecx, 2
	jne	SHORT $LN91@WndProc
	mov	edx, DWORD PTR _csut_TFX_LastProbe
	mov	DWORD PTR [edx], 261			; 00000105H
	mov	eax, DWORD PTR _csut_TFX_CoverageBuffer
	mov	BYTE PTR [eax+261], 49			; 00000031H
	mov	DWORD PTR tv245[ebp], 1
	jmp	SHORT $LN92@WndProc
$LN91@WndProc:
	mov	ecx, DWORD PTR _csut_TFX_LastProbe
	mov	DWORD PTR [ecx], 262			; 00000106H
	mov	edx, DWORD PTR _csut_TFX_CoverageBuffer
	mov	BYTE PTR [edx+262], 49			; 00000031H
	mov	DWORD PTR tv245[ebp], 0
$LN92@WndProc:
	mov	eax, DWORD PTR tv245[ebp]
	mov	DWORD PTR tv248[ebp], eax
	jmp	SHORT $LN94@WndProc
$LN93@WndProc:
	mov	ecx, DWORD PTR _csut_TFX_LastProbe
	mov	DWORD PTR [ecx], 263			; 00000107H
	mov	edx, DWORD PTR _csut_TFX_CoverageBuffer
	mov	BYTE PTR [edx+263], 49			; 00000031H
	mov	DWORD PTR tv248[ebp], 0
$LN94@WndProc:
	cmp	DWORD PTR tv248[ebp], 0
	je	SHORT $LN63@WndProc
; Line 252
	mov	eax, DWORD PTR _csut_TFX_LastProbe
	mov	DWORD PTR [eax], 113			; 00000071H
	mov	ecx, DWORD PTR _csut_TFX_CoverageBuffer
	mov	BYTE PTR [ecx+113], 49			; 00000031H
	mov	eax, DWORD PTR _csut_TFX_LastProbe
	mov	DWORD PTR [eax], 213			; 000000d5H
	mov	ecx, DWORD PTR _csut_TFX_CoverageBuffer
	mov	BYTE PTR [ecx+213], 49			; 00000031H
	xor	eax, eax
	jmp	$LN85@WndProc
	jmp	SHORT $LN62@WndProc
$LN63@WndProc:
	mov	eax, DWORD PTR _csut_TFX_LastProbe
	mov	DWORD PTR [eax], 114			; 00000072H
	mov	ecx, DWORD PTR _csut_TFX_CoverageBuffer
	mov	BYTE PTR [ecx+114], 49			; 00000031H
$LN62@WndProc:
; Line 254
	push	OFFSET ??_C@_13NOLLCAOD@?$AA?$AA?$AA?$AA@
	mov	eax, DWORD PTR ?hwndEdit@?1??WndProc@@9@9
	push	eax
	call	DWORD PTR __imp__SetWindowTextW@8
; Line 255
	xor	eax, eax
	mov	WORD PTR ?szFileName@?1??WndProc@@9@9, ax
; Line 256
	xor	eax, eax
	mov	WORD PTR ?szTitleName@?1??WndProc@@9@9, ax
; Line 257
	push	OFFSET ?szTitleName@?1??WndProc@@9@9
	mov	eax, DWORD PTR _hwnd$[ebp]
	push	eax
	call	_DoCaption
	add	esp, 8
; Line 258
	mov	DWORD PTR ?bNeedSave@?1??WndProc@@9@9, 0
; Line 259
	mov	eax, DWORD PTR _csut_TFX_LastProbe
	mov	DWORD PTR [eax], 214			; 000000d6H
	mov	ecx, DWORD PTR _csut_TFX_CoverageBuffer
	mov	BYTE PTR [ecx+214], 49			; 00000031H
	xor	eax, eax
	jmp	$LN85@WndProc
$LN61@WndProc:
; Line 261
	mov	eax, DWORD PTR _csut_TFX_LastProbe
	mov	DWORD PTR [eax], 148			; 00000094H
	mov	ecx, DWORD PTR _csut_TFX_CoverageBuffer
	mov	BYTE PTR [ecx+148], 49			; 00000031H
	mov	eax, DWORD PTR _csut_TFX_LastProbe
	mov	DWORD PTR [eax], 115			; 00000073H
	mov	ecx, DWORD PTR _csut_TFX_CoverageBuffer
	mov	BYTE PTR [ecx+115], 49			; 00000031H
; Line 262
	cmp	DWORD PTR ?bNeedSave@?1??WndProc@@9@9, 0
	je	SHORT $LN97@WndProc
	push	OFFSET ?szTitleName@?1??WndProc@@9@9
	mov	eax, DWORD PTR _hwnd$[ebp]
	push	eax
	call	_AskAboutSave
	add	esp, 8
	movsx	ecx, ax
	cmp	ecx, 2
	jne	SHORT $LN95@WndProc
	mov	edx, DWORD PTR _csut_TFX_LastProbe
	mov	DWORD PTR [edx], 264			; 00000108H
	mov	eax, DWORD PTR _csut_TFX_CoverageBuffer
	mov	BYTE PTR [eax+264], 49			; 00000031H
	mov	DWORD PTR tv267[ebp], 1
	jmp	SHORT $LN96@WndProc
$LN95@WndProc:
	mov	ecx, DWORD PTR _csut_TFX_LastProbe
	mov	DWORD PTR [ecx], 265			; 00000109H
	mov	edx, DWORD PTR _csut_TFX_CoverageBuffer
	mov	BYTE PTR [edx+265], 49			; 00000031H
	mov	DWORD PTR tv267[ebp], 0
$LN96@WndProc:
	mov	eax, DWORD PTR tv267[ebp]
	mov	DWORD PTR tv270[ebp], eax
	jmp	SHORT $LN98@WndProc
$LN97@WndProc:
	mov	ecx, DWORD PTR _csut_TFX_LastProbe
	mov	DWORD PTR [ecx], 266			; 0000010aH
	mov	edx, DWORD PTR _csut_TFX_CoverageBuffer
	mov	BYTE PTR [edx+266], 49			; 00000031H
	mov	DWORD PTR tv270[ebp], 0
$LN98@WndProc:
	cmp	DWORD PTR tv270[ebp], 0
	je	SHORT $LN60@WndProc
; Line 263
	mov	eax, DWORD PTR _csut_TFX_LastProbe
	mov	DWORD PTR [eax], 116			; 00000074H
	mov	ecx, DWORD PTR _csut_TFX_CoverageBuffer
	mov	BYTE PTR [ecx+116], 49			; 00000031H
	mov	eax, DWORD PTR _csut_TFX_LastProbe
	mov	DWORD PTR [eax], 215			; 000000d7H
	mov	ecx, DWORD PTR _csut_TFX_CoverageBuffer
	mov	BYTE PTR [ecx+215], 49			; 00000031H
	xor	eax, eax
	jmp	$LN85@WndProc
	jmp	SHORT $LN59@WndProc
$LN60@WndProc:
	mov	eax, DWORD PTR _csut_TFX_LastProbe
	mov	DWORD PTR [eax], 117			; 00000075H
	mov	ecx, DWORD PTR _csut_TFX_CoverageBuffer
	mov	BYTE PTR [ecx+117], 49			; 00000031H
$LN59@WndProc:
; Line 265
	push	OFFSET ?szTitleName@?1??WndProc@@9@9
	push	OFFSET ?szFileName@?1??WndProc@@9@9
	mov	eax, DWORD PTR _hwnd$[ebp]
	push	eax
	call	_PopFileOpenDlg
	add	esp, 12					; 0000000cH
	test	eax, eax
	je	$LN58@WndProc
; Line 266
	mov	eax, DWORD PTR _csut_TFX_LastProbe
	mov	DWORD PTR [eax], 121			; 00000079H
	mov	ecx, DWORD PTR _csut_TFX_CoverageBuffer
	mov	BYTE PTR [ecx+121], 49			; 00000031H
; Line 267
	push	OFFSET ?szFileName@?1??WndProc@@9@9
	mov	eax, DWORD PTR ?hwndEdit@?1??WndProc@@9@9
	push	eax
	call	_PopFileRead
	add	esp, 8
	test	eax, eax
	jne	SHORT $LN57@WndProc
; Line 268
	mov	eax, DWORD PTR _csut_TFX_LastProbe
	mov	DWORD PTR [eax], 119			; 00000077H
	mov	ecx, DWORD PTR _csut_TFX_CoverageBuffer
	mov	BYTE PTR [ecx+119], 49			; 00000031H
; Line 270
	push	OFFSET ?szTitleName@?1??WndProc@@9@9
	push	OFFSET ??_C@_1DA@EBEKDLNF@?$AAC?$AAo?$AAu?$AAl?$AAd?$AA?5?$AAn?$AAo?$AAt?$AA?5?$AAr?$AAe?$AAa?$AAd?$AA?5?$AAf?$AAi?$AAl?$AAe?$AA?5?$AA?$CF?$AAs?$AA?$CB?$AA?$AA@
	mov	eax, DWORD PTR _hwnd$[ebp]
	push	eax
	call	_OkMessage
	add	esp, 12					; 0000000cH
; Line 271
	xor	eax, eax
	mov	WORD PTR ?szFileName@?1??WndProc@@9@9, ax
; Line 272
	xor	eax, eax
	mov	WORD PTR ?szTitleName@?1??WndProc@@9@9, ax
	mov	eax, DWORD PTR _csut_TFX_LastProbe
	mov	DWORD PTR [eax], 118			; 00000076H
	mov	ecx, DWORD PTR _csut_TFX_CoverageBuffer
	mov	BYTE PTR [ecx+118], 49			; 00000031H
	jmp	SHORT $LN56@WndProc
$LN57@WndProc:
; Line 273
	mov	eax, DWORD PTR _csut_TFX_LastProbe
	mov	DWORD PTR [eax], 120			; 00000078H
	mov	ecx, DWORD PTR _csut_TFX_CoverageBuffer
	mov	BYTE PTR [ecx+120], 49			; 00000031H
$LN56@WndProc:
	jmp	SHORT $LN55@WndProc
$LN58@WndProc:
; Line 274
	mov	eax, DWORD PTR _csut_TFX_LastProbe
	mov	DWORD PTR [eax], 122			; 0000007aH
	mov	ecx, DWORD PTR _csut_TFX_CoverageBuffer
	mov	BYTE PTR [ecx+122], 49			; 00000031H
$LN55@WndProc:
; Line 276
	push	OFFSET ?szTitleName@?1??WndProc@@9@9
	mov	eax, DWORD PTR _hwnd$[ebp]
	push	eax
	call	_DoCaption
	add	esp, 8
; Line 277
	mov	DWORD PTR ?bNeedSave@?1??WndProc@@9@9, 0
; Line 278
	mov	eax, DWORD PTR _csut_TFX_LastProbe
	mov	DWORD PTR [eax], 216			; 000000d8H
	mov	ecx, DWORD PTR _csut_TFX_CoverageBuffer
	mov	BYTE PTR [ecx+216], 49			; 00000031H
	xor	eax, eax
	jmp	$LN85@WndProc
$LN54@WndProc:
; Line 280
	mov	eax, DWORD PTR _csut_TFX_LastProbe
	mov	DWORD PTR [eax], 149			; 00000095H
	mov	ecx, DWORD PTR _csut_TFX_CoverageBuffer
	mov	BYTE PTR [ecx+149], 49			; 00000031H
	mov	eax, DWORD PTR _csut_TFX_LastProbe
	mov	DWORD PTR [eax], 123			; 0000007bH
	mov	ecx, DWORD PTR _csut_TFX_CoverageBuffer
	mov	BYTE PTR [ecx+123], 49			; 00000031H
; Line 281
	movzx	eax, WORD PTR ?szFileName@?1??WndProc@@9@9
	test	eax, eax
	je	$LN53@WndProc
; Line 282
	mov	eax, DWORD PTR _csut_TFX_LastProbe
	mov	DWORD PTR [eax], 126			; 0000007eH
	mov	ecx, DWORD PTR _csut_TFX_CoverageBuffer
	mov	BYTE PTR [ecx+126], 49			; 00000031H
; Line 283
	push	OFFSET ?szFileName@?1??WndProc@@9@9
	mov	eax, DWORD PTR ?hwndEdit@?1??WndProc@@9@9
	push	eax
	call	_PopFileWrite
	add	esp, 8
	test	eax, eax
	je	SHORT $LN52@WndProc
; Line 284
	mov	eax, DWORD PTR _csut_TFX_LastProbe
	mov	DWORD PTR [eax], 124			; 0000007cH
	mov	ecx, DWORD PTR _csut_TFX_CoverageBuffer
	mov	BYTE PTR [ecx+124], 49			; 00000031H
; Line 285
	mov	DWORD PTR ?bNeedSave@?1??WndProc@@9@9, 0
; Line 286
	mov	eax, DWORD PTR _csut_TFX_LastProbe
	mov	DWORD PTR [eax], 217			; 000000d9H
	mov	ecx, DWORD PTR _csut_TFX_CoverageBuffer
	mov	BYTE PTR [ecx+217], 49			; 00000031H
	mov	eax, 1
	jmp	$LN85@WndProc
; Line 288
	jmp	SHORT $LN51@WndProc
$LN52@WndProc:
; Line 289
	mov	eax, DWORD PTR _csut_TFX_LastProbe
	mov	DWORD PTR [eax], 125			; 0000007dH
	mov	ecx, DWORD PTR _csut_TFX_CoverageBuffer
	mov	BYTE PTR [ecx+125], 49			; 00000031H
; Line 291
	push	OFFSET ?szTitleName@?1??WndProc@@9@9
	push	OFFSET ??_C@_1DA@PJIAAFHE@?$AAC?$AAo?$AAu?$AAl?$AAd?$AA?5?$AAn?$AAo?$AAt?$AA?5?$AAw?$AAr?$AAi?$AAt?$AAe?$AA?5?$AAf?$AAi?$AAl?$AAe?$AA?5?$AA?$CF?$AAs?$AA?$AA@
	mov	eax, DWORD PTR _hwnd$[ebp]
	push	eax
	call	_OkMessage
	add	esp, 12					; 0000000cH
; Line 292
	mov	eax, DWORD PTR _csut_TFX_LastProbe
	mov	DWORD PTR [eax], 218			; 000000daH
	mov	ecx, DWORD PTR _csut_TFX_CoverageBuffer
	mov	BYTE PTR [ecx+218], 49			; 00000031H
	xor	eax, eax
	jmp	$LN85@WndProc
$LN51@WndProc:
; Line 293
	jmp	SHORT $LN50@WndProc
$LN53@WndProc:
; Line 294
	mov	eax, DWORD PTR _csut_TFX_LastProbe
	mov	DWORD PTR [eax], 127			; 0000007fH
	mov	ecx, DWORD PTR _csut_TFX_CoverageBuffer
	mov	BYTE PTR [ecx+127], 49			; 00000031H
$LN50@WndProc:
	jmp	SHORT $codescroll_218115_11$77372
$LN49@WndProc:
; Line 296
	mov	eax, DWORD PTR _csut_TFX_LastProbe
	mov	DWORD PTR [eax], 150			; 00000096H
	mov	ecx, DWORD PTR _csut_TFX_CoverageBuffer
	mov	BYTE PTR [ecx+150], 49			; 00000031H
$codescroll_218115_11$77372:
	mov	eax, DWORD PTR _csut_TFX_LastProbe
	mov	DWORD PTR [eax], 128			; 00000080H
	mov	ecx, DWORD PTR _csut_TFX_CoverageBuffer
	mov	BYTE PTR [ecx+128], 49			; 00000031H
; Line 297
	push	OFFSET ?szTitleName@?1??WndProc@@9@9
	push	OFFSET ?szFileName@?1??WndProc@@9@9
	mov	eax, DWORD PTR _hwnd$[ebp]
	push	eax
	call	_PopFileSaveDlg
	add	esp, 12					; 0000000cH
	test	eax, eax
	je	$LN48@WndProc
; Line 298
	mov	eax, DWORD PTR _csut_TFX_LastProbe
	mov	DWORD PTR [eax], 132			; 00000084H
	mov	ecx, DWORD PTR _csut_TFX_CoverageBuffer
	mov	BYTE PTR [ecx+132], 49			; 00000031H
; Line 299
	push	OFFSET ?szTitleName@?1??WndProc@@9@9
	mov	eax, DWORD PTR _hwnd$[ebp]
	push	eax
	call	_DoCaption
	add	esp, 8
	mov	eax, DWORD PTR _csut_TFX_LastProbe
	mov	DWORD PTR [eax], 129			; 00000081H
	mov	ecx, DWORD PTR _csut_TFX_CoverageBuffer
	mov	BYTE PTR [ecx+129], 49			; 00000031H
; Line 301
	push	OFFSET ?szFileName@?1??WndProc@@9@9
	mov	eax, DWORD PTR ?hwndEdit@?1??WndProc@@9@9
	push	eax
	call	_PopFileWrite
	add	esp, 8
	test	eax, eax
	je	SHORT $LN47@WndProc
; Line 302
	mov	eax, DWORD PTR _csut_TFX_LastProbe
	mov	DWORD PTR [eax], 130			; 00000082H
	mov	ecx, DWORD PTR _csut_TFX_CoverageBuffer
	mov	BYTE PTR [ecx+130], 49			; 00000031H
; Line 303
	mov	DWORD PTR ?bNeedSave@?1??WndProc@@9@9, 0
; Line 304
	mov	eax, DWORD PTR _csut_TFX_LastProbe
	mov	DWORD PTR [eax], 219			; 000000dbH
	mov	ecx, DWORD PTR _csut_TFX_CoverageBuffer
	mov	BYTE PTR [ecx+219], 49			; 00000031H
	mov	eax, 1
	jmp	$LN85@WndProc
; Line 306
	jmp	SHORT $LN46@WndProc
$LN47@WndProc:
; Line 307
	mov	eax, DWORD PTR _csut_TFX_LastProbe
	mov	DWORD PTR [eax], 131			; 00000083H
	mov	ecx, DWORD PTR _csut_TFX_CoverageBuffer
	mov	BYTE PTR [ecx+131], 49			; 00000031H
; Line 309
	push	OFFSET ?szTitleName@?1??WndProc@@9@9
	push	OFFSET ??_C@_1DA@PJIAAFHE@?$AAC?$AAo?$AAu?$AAl?$AAd?$AA?5?$AAn?$AAo?$AAt?$AA?5?$AAw?$AAr?$AAi?$AAt?$AAe?$AA?5?$AAf?$AAi?$AAl?$AAe?$AA?5?$AA?$CF?$AAs?$AA?$AA@
	mov	eax, DWORD PTR _hwnd$[ebp]
	push	eax
	call	_OkMessage
	add	esp, 12					; 0000000cH
; Line 310
	mov	eax, DWORD PTR _csut_TFX_LastProbe
	mov	DWORD PTR [eax], 220			; 000000dcH
	mov	ecx, DWORD PTR _csut_TFX_CoverageBuffer
	mov	BYTE PTR [ecx+220], 49			; 00000031H
	xor	eax, eax
	jmp	$LN85@WndProc
$LN46@WndProc:
; Line 311
	jmp	SHORT $LN45@WndProc
$LN48@WndProc:
; Line 312
	mov	eax, DWORD PTR _csut_TFX_LastProbe
	mov	DWORD PTR [eax], 133			; 00000085H
	mov	ecx, DWORD PTR _csut_TFX_CoverageBuffer
	mov	BYTE PTR [ecx+133], 49			; 00000031H
$LN45@WndProc:
; Line 313
	mov	eax, DWORD PTR _csut_TFX_LastProbe
	mov	DWORD PTR [eax], 221			; 000000ddH
	mov	ecx, DWORD PTR _csut_TFX_CoverageBuffer
	mov	BYTE PTR [ecx+221], 49			; 00000031H
	xor	eax, eax
	jmp	$LN85@WndProc
$LN44@WndProc:
; Line 315
	mov	eax, DWORD PTR _csut_TFX_LastProbe
	mov	DWORD PTR [eax], 151			; 00000097H
	mov	ecx, DWORD PTR _csut_TFX_CoverageBuffer
	mov	BYTE PTR [ecx+151], 49			; 00000031H
	mov	eax, DWORD PTR _csut_TFX_LastProbe
	mov	DWORD PTR [eax], 134			; 00000086H
	mov	ecx, DWORD PTR _csut_TFX_CoverageBuffer
	mov	BYTE PTR [ecx+134], 49			; 00000031H
; Line 316
	push	OFFSET ?szTitleName@?1??WndProc@@9@9
	mov	eax, DWORD PTR ?hwndEdit@?1??WndProc@@9@9
	push	eax
	mov	ecx, DWORD PTR _hwnd$[ebp]
	push	ecx
	mov	edx, DWORD PTR ?hInst@?1??WndProc@@9@9
	push	edx
	call	_PopPrntPrintFile
	add	esp, 16					; 00000010H
	test	eax, eax
	jne	SHORT $LN43@WndProc
; Line 317
	mov	eax, DWORD PTR _csut_TFX_LastProbe
	mov	DWORD PTR [eax], 136			; 00000088H
	mov	ecx, DWORD PTR _csut_TFX_CoverageBuffer
	mov	BYTE PTR [ecx+136], 49			; 00000031H
; Line 318
	push	OFFSET ?szTitleName@?1??WndProc@@9@9
	push	OFFSET ??_C@_1DA@EGMMMDIF@?$AAC?$AAo?$AAu?$AAl?$AAd?$AA?5?$AAn?$AAo?$AAt?$AA?5?$AAp?$AAr?$AAi?$AAn?$AAt?$AA?5?$AAf?$AAi?$AAl?$AAe?$AA?5?$AA?$CF?$AAs?$AA?$AA@
	mov	eax, DWORD PTR _hwnd$[ebp]
	push	eax
	call	_OkMessage
	add	esp, 12					; 0000000cH
	mov	eax, DWORD PTR _csut_TFX_LastProbe
	mov	DWORD PTR [eax], 135			; 00000087H
	mov	ecx, DWORD PTR _csut_TFX_CoverageBuffer
	mov	BYTE PTR [ecx+135], 49			; 00000031H
	jmp	SHORT $LN42@WndProc
$LN43@WndProc:
	mov	eax, DWORD PTR _csut_TFX_LastProbe
	mov	DWORD PTR [eax], 137			; 00000089H
	mov	ecx, DWORD PTR _csut_TFX_CoverageBuffer
	mov	BYTE PTR [ecx+137], 49			; 00000031H
$LN42@WndProc:
; Line 319
	mov	eax, DWORD PTR _csut_TFX_LastProbe
	mov	DWORD PTR [eax], 222			; 000000deH
	mov	ecx, DWORD PTR _csut_TFX_CoverageBuffer
	mov	BYTE PTR [ecx+222], 49			; 00000031H
	xor	eax, eax
	jmp	$LN85@WndProc
$LN41@WndProc:
; Line 321
	mov	eax, DWORD PTR _csut_TFX_LastProbe
	mov	DWORD PTR [eax], 152			; 00000098H
	mov	ecx, DWORD PTR _csut_TFX_CoverageBuffer
	mov	BYTE PTR [ecx+152], 49			; 00000031H
; Line 322
	push	0
	push	0
	push	16					; 00000010H
	mov	eax, DWORD PTR _hwnd$[ebp]
	push	eax
	call	DWORD PTR __imp__SendMessageW@16
; Line 323
	mov	eax, DWORD PTR _csut_TFX_LastProbe
	mov	DWORD PTR [eax], 223			; 000000dfH
	mov	ecx, DWORD PTR _csut_TFX_CoverageBuffer
	mov	BYTE PTR [ecx+223], 49			; 00000031H
	xor	eax, eax
	jmp	$LN85@WndProc
$LN40@WndProc:
; Line 327
	mov	eax, DWORD PTR _csut_TFX_LastProbe
	mov	DWORD PTR [eax], 153			; 00000099H
	mov	ecx, DWORD PTR _csut_TFX_CoverageBuffer
	mov	BYTE PTR [ecx+153], 49			; 00000031H
; Line 328
	push	0
	push	0
	push	772					; 00000304H
	mov	eax, DWORD PTR ?hwndEdit@?1??WndProc@@9@9
	push	eax
	call	DWORD PTR __imp__SendMessageW@16
; Line 329
	mov	eax, DWORD PTR _csut_TFX_LastProbe
	mov	DWORD PTR [eax], 224			; 000000e0H
	mov	ecx, DWORD PTR _csut_TFX_CoverageBuffer
	mov	BYTE PTR [ecx+224], 49			; 00000031H
	xor	eax, eax
	jmp	$LN85@WndProc
$LN39@WndProc:
; Line 331
	mov	eax, DWORD PTR _csut_TFX_LastProbe
	mov	DWORD PTR [eax], 154			; 0000009aH
	mov	ecx, DWORD PTR _csut_TFX_CoverageBuffer
	mov	BYTE PTR [ecx+154], 49			; 00000031H
; Line 332
	push	0
	push	0
	push	768					; 00000300H
	mov	eax, DWORD PTR ?hwndEdit@?1??WndProc@@9@9
	push	eax
	call	DWORD PTR __imp__SendMessageW@16
; Line 333
	mov	eax, DWORD PTR _csut_TFX_LastProbe
	mov	DWORD PTR [eax], 225			; 000000e1H
	mov	ecx, DWORD PTR _csut_TFX_CoverageBuffer
	mov	BYTE PTR [ecx+225], 49			; 00000031H
	xor	eax, eax
	jmp	$LN85@WndProc
$LN38@WndProc:
; Line 335
	mov	eax, DWORD PTR _csut_TFX_LastProbe
	mov	DWORD PTR [eax], 155			; 0000009bH
	mov	ecx, DWORD PTR _csut_TFX_CoverageBuffer
	mov	BYTE PTR [ecx+155], 49			; 00000031H
; Line 336
	push	0
	push	0
	push	769					; 00000301H
	mov	eax, DWORD PTR ?hwndEdit@?1??WndProc@@9@9
	push	eax
	call	DWORD PTR __imp__SendMessageW@16
; Line 337
	mov	eax, DWORD PTR _csut_TFX_LastProbe
	mov	DWORD PTR [eax], 226			; 000000e2H
	mov	ecx, DWORD PTR _csut_TFX_CoverageBuffer
	mov	BYTE PTR [ecx+226], 49			; 00000031H
	xor	eax, eax
	jmp	$LN85@WndProc
$LN37@WndProc:
; Line 339
	mov	eax, DWORD PTR _csut_TFX_LastProbe
	mov	DWORD PTR [eax], 156			; 0000009cH
	mov	ecx, DWORD PTR _csut_TFX_CoverageBuffer
	mov	BYTE PTR [ecx+156], 49			; 00000031H
; Line 340
	push	0
	push	0
	push	770					; 00000302H
	mov	eax, DWORD PTR ?hwndEdit@?1??WndProc@@9@9
	push	eax
	call	DWORD PTR __imp__SendMessageW@16
; Line 341
	mov	eax, DWORD PTR _csut_TFX_LastProbe
	mov	DWORD PTR [eax], 227			; 000000e3H
	mov	ecx, DWORD PTR _csut_TFX_CoverageBuffer
	mov	BYTE PTR [ecx+227], 49			; 00000031H
	xor	eax, eax
	jmp	$LN85@WndProc
$LN36@WndProc:
; Line 343
	mov	eax, DWORD PTR _csut_TFX_LastProbe
	mov	DWORD PTR [eax], 157			; 0000009dH
	mov	ecx, DWORD PTR _csut_TFX_CoverageBuffer
	mov	BYTE PTR [ecx+157], 49			; 00000031H
; Line 344
	push	0
	push	0
	push	771					; 00000303H
	mov	eax, DWORD PTR ?hwndEdit@?1??WndProc@@9@9
	push	eax
	call	DWORD PTR __imp__SendMessageW@16
; Line 345
	mov	eax, DWORD PTR _csut_TFX_LastProbe
	mov	DWORD PTR [eax], 228			; 000000e4H
	mov	ecx, DWORD PTR _csut_TFX_CoverageBuffer
	mov	BYTE PTR [ecx+228], 49			; 00000031H
	xor	eax, eax
	jmp	$LN85@WndProc
$LN35@WndProc:
; Line 347
	mov	eax, DWORD PTR _csut_TFX_LastProbe
	mov	DWORD PTR [eax], 158			; 0000009eH
	mov	ecx, DWORD PTR _csut_TFX_CoverageBuffer
	mov	BYTE PTR [ecx+158], 49			; 00000031H
; Line 348
	push	-1
	push	0
	push	177					; 000000b1H
	mov	eax, DWORD PTR ?hwndEdit@?1??WndProc@@9@9
	push	eax
	call	DWORD PTR __imp__SendMessageW@16
; Line 349
	mov	eax, DWORD PTR _csut_TFX_LastProbe
	mov	DWORD PTR [eax], 229			; 000000e5H
	mov	ecx, DWORD PTR _csut_TFX_CoverageBuffer
	mov	BYTE PTR [ecx+229], 49			; 00000031H
	xor	eax, eax
	jmp	$LN85@WndProc
$LN34@WndProc:
; Line 353
	mov	eax, DWORD PTR _csut_TFX_LastProbe
	mov	DWORD PTR [eax], 159			; 0000009fH
	mov	ecx, DWORD PTR _csut_TFX_CoverageBuffer
	mov	BYTE PTR [ecx+159], 49			; 00000031H
; Line 354
	push	OFFSET ?iOffset@?1??WndProc@@9@9
	push	0
	push	176					; 000000b0H
	mov	eax, DWORD PTR ?hwndEdit@?1??WndProc@@9@9
	push	eax
	call	DWORD PTR __imp__SendMessageW@16
; Line 355
	mov	eax, DWORD PTR _hwnd$[ebp]
	push	eax
	call	_PopFindFindDlg
	add	esp, 4
	mov	DWORD PTR _hDlgModeless, eax
; Line 356
	mov	eax, DWORD PTR _csut_TFX_LastProbe
	mov	DWORD PTR [eax], 230			; 000000e6H
	mov	ecx, DWORD PTR _csut_TFX_CoverageBuffer
	mov	BYTE PTR [ecx+230], 49			; 00000031H
	xor	eax, eax
	jmp	$LN85@WndProc
$LN33@WndProc:
; Line 358
	mov	eax, DWORD PTR _csut_TFX_LastProbe
	mov	DWORD PTR [eax], 160			; 000000a0H
	mov	ecx, DWORD PTR _csut_TFX_CoverageBuffer
	mov	BYTE PTR [ecx+160], 49			; 00000031H
; Line 359
	push	OFFSET ?iOffset@?1??WndProc@@9@9
	push	0
	push	176					; 000000b0H
	mov	eax, DWORD PTR ?hwndEdit@?1??WndProc@@9@9
	push	eax
	call	DWORD PTR __imp__SendMessageW@16
	mov	eax, DWORD PTR _csut_TFX_LastProbe
	mov	DWORD PTR [eax], 138			; 0000008aH
	mov	ecx, DWORD PTR _csut_TFX_CoverageBuffer
	mov	BYTE PTR [ecx+138], 49			; 00000031H
; Line 361
	call	_PopFindValidFind
	test	eax, eax
	je	SHORT $LN32@WndProc
; Line 362
	mov	eax, DWORD PTR _csut_TFX_LastProbe
	mov	DWORD PTR [eax], 141			; 0000008dH
	mov	ecx, DWORD PTR _csut_TFX_CoverageBuffer
	mov	BYTE PTR [ecx+141], 49			; 00000031H
	push	OFFSET ?iOffset@?1??WndProc@@9@9
	mov	eax, DWORD PTR ?hwndEdit@?1??WndProc@@9@9
	push	eax
	call	_PopFindNextText
	add	esp, 8
	mov	eax, DWORD PTR _csut_TFX_LastProbe
	mov	DWORD PTR [eax], 139			; 0000008bH
	mov	ecx, DWORD PTR _csut_TFX_CoverageBuffer
	mov	BYTE PTR [ecx+139], 49			; 00000031H
; Line 363
	jmp	SHORT $LN31@WndProc
$LN32@WndProc:
; Line 364
	mov	eax, DWORD PTR _csut_TFX_LastProbe
	mov	DWORD PTR [eax], 142			; 0000008eH
	mov	ecx, DWORD PTR _csut_TFX_CoverageBuffer
	mov	BYTE PTR [ecx+142], 49			; 00000031H
	mov	eax, DWORD PTR _hwnd$[ebp]
	push	eax
	call	_PopFindFindDlg
	add	esp, 4
	mov	DWORD PTR _hDlgModeless, eax
	mov	eax, DWORD PTR _csut_TFX_LastProbe
	mov	DWORD PTR [eax], 140			; 0000008cH
	mov	ecx, DWORD PTR _csut_TFX_CoverageBuffer
	mov	BYTE PTR [ecx+140], 49			; 00000031H
$LN31@WndProc:
; Line 366
	mov	eax, DWORD PTR _csut_TFX_LastProbe
	mov	DWORD PTR [eax], 231			; 000000e7H
	mov	ecx, DWORD PTR _csut_TFX_CoverageBuffer
	mov	BYTE PTR [ecx+231], 49			; 00000031H
	xor	eax, eax
	jmp	$LN85@WndProc
$LN30@WndProc:
; Line 368
	mov	eax, DWORD PTR _csut_TFX_LastProbe
	mov	DWORD PTR [eax], 161			; 000000a1H
	mov	ecx, DWORD PTR _csut_TFX_CoverageBuffer
	mov	BYTE PTR [ecx+161], 49			; 00000031H
; Line 369
	push	OFFSET ?iOffset@?1??WndProc@@9@9
	push	0
	push	176					; 000000b0H
	mov	eax, DWORD PTR ?hwndEdit@?1??WndProc@@9@9
	push	eax
	call	DWORD PTR __imp__SendMessageW@16
; Line 370
	mov	eax, DWORD PTR _hwnd$[ebp]
	push	eax
	call	_PopFindReplaceDlg
	add	esp, 4
	mov	DWORD PTR _hDlgModeless, eax
; Line 371
	mov	eax, DWORD PTR _csut_TFX_LastProbe
	mov	DWORD PTR [eax], 232			; 000000e8H
	mov	ecx, DWORD PTR _csut_TFX_CoverageBuffer
	mov	BYTE PTR [ecx+232], 49			; 00000031H
	xor	eax, eax
	jmp	$LN85@WndProc
$LN29@WndProc:
; Line 373
	mov	eax, DWORD PTR _csut_TFX_LastProbe
	mov	DWORD PTR [eax], 162			; 000000a2H
	mov	ecx, DWORD PTR _csut_TFX_CoverageBuffer
	mov	BYTE PTR [ecx+162], 49			; 00000031H
	mov	eax, DWORD PTR _csut_TFX_LastProbe
	mov	DWORD PTR [eax], 143			; 0000008fH
	mov	ecx, DWORD PTR _csut_TFX_CoverageBuffer
	mov	BYTE PTR [ecx+143], 49			; 00000031H
; Line 374
	mov	eax, DWORD PTR _hwnd$[ebp]
	push	eax
	call	_PopFontChooseFont
	add	esp, 4
	test	eax, eax
	je	SHORT $LN28@WndProc
; Line 375
	mov	eax, DWORD PTR _csut_TFX_LastProbe
	mov	DWORD PTR [eax], 145			; 00000091H
	mov	ecx, DWORD PTR _csut_TFX_CoverageBuffer
	mov	BYTE PTR [ecx+145], 49			; 00000031H
	mov	eax, DWORD PTR ?hwndEdit@?1??WndProc@@9@9
	push	eax
	call	_PopFontSetFont
	add	esp, 4
	mov	eax, DWORD PTR _csut_TFX_LastProbe
	mov	DWORD PTR [eax], 144			; 00000090H
	mov	ecx, DWORD PTR _csut_TFX_CoverageBuffer
	mov	BYTE PTR [ecx+144], 49			; 00000031H
	jmp	SHORT $LN27@WndProc
$LN28@WndProc:
	mov	eax, DWORD PTR _csut_TFX_LastProbe
	mov	DWORD PTR [eax], 146			; 00000092H
	mov	ecx, DWORD PTR _csut_TFX_CoverageBuffer
	mov	BYTE PTR [ecx+146], 49			; 00000031H
$LN27@WndProc:
; Line 377
	mov	eax, DWORD PTR _csut_TFX_LastProbe
	mov	DWORD PTR [eax], 233			; 000000e9H
	mov	ecx, DWORD PTR _csut_TFX_CoverageBuffer
	mov	BYTE PTR [ecx+233], 49			; 00000031H
	xor	eax, eax
	jmp	$LN85@WndProc
$LN26@WndProc:
; Line 381
	mov	eax, DWORD PTR _csut_TFX_LastProbe
	mov	DWORD PTR [eax], 163			; 000000a3H
	mov	ecx, DWORD PTR _csut_TFX_CoverageBuffer
	mov	BYTE PTR [ecx+163], 49			; 00000031H
; Line 383
	push	OFFSET ??_C@_13NOLLCAOD@?$AA?$AA?$AA?$AA@
	push	OFFSET ??_C@_1DE@INPPLNLA@?$AAH?$AAe?$AAl?$AAp?$AA?5?$AAn?$AAo?$AAt?$AA?5?$AAy?$AAe?$AAt?$AA?5?$AAi?$AAm?$AAp?$AAl?$AAe?$AAm?$AAe?$AAn?$AAt?$AAe?$AAd?$AA?$CB?$AA?$AA@
	mov	eax, DWORD PTR _hwnd$[ebp]
	push	eax
	call	_OkMessage
	add	esp, 12					; 0000000cH
; Line 384
	mov	eax, DWORD PTR _csut_TFX_LastProbe
	mov	DWORD PTR [eax], 234			; 000000eaH
	mov	ecx, DWORD PTR _csut_TFX_CoverageBuffer
	mov	BYTE PTR [ecx+234], 49			; 00000031H
	xor	eax, eax
	jmp	$LN85@WndProc
$LN25@WndProc:
; Line 386
	mov	eax, DWORD PTR _csut_TFX_LastProbe
	mov	DWORD PTR [eax], 164			; 000000a4H
	mov	ecx, DWORD PTR _csut_TFX_CoverageBuffer
	mov	BYTE PTR [ecx+164], 49			; 00000031H
; Line 387
	push	0
	push	OFFSET _AboutDlgProc@16
	mov	eax, DWORD PTR _hwnd$[ebp]
	push	eax
	push	OFFSET ??_C@_1BC@NGEJEGGC@?$AAA?$AAb?$AAo?$AAu?$AAt?$AAB?$AAo?$AAx?$AA?$AA@
	mov	ecx, DWORD PTR ?hInst@?1??WndProc@@9@9
	push	ecx
	call	DWORD PTR __imp__DialogBoxParamW@20
; Line 388
	mov	eax, DWORD PTR _csut_TFX_LastProbe
	mov	DWORD PTR [eax], 235			; 000000ebH
	mov	ecx, DWORD PTR _csut_TFX_CoverageBuffer
	mov	BYTE PTR [ecx+235], 49			; 00000031H
	xor	eax, eax
	jmp	$LN85@WndProc
	jmp	SHORT $codescroll_218065_11_218208_11$77404
$LN65@WndProc:
; Line 389
	mov	eax, DWORD PTR _csut_TFX_LastProbe
	mov	DWORD PTR [eax], 165			; 000000a5H
	mov	ecx, DWORD PTR _csut_TFX_CoverageBuffer
	mov	BYTE PTR [ecx+165], 49			; 00000031H
$codescroll_218065_11_218208_11$77404:
; Line 390
	mov	eax, DWORD PTR _csut_TFX_LastProbe
	mov	DWORD PTR [eax], 205			; 000000cdH
	mov	ecx, DWORD PTR _csut_TFX_CoverageBuffer
	mov	BYTE PTR [ecx+205], 49			; 00000031H
	jmp	$codescroll_217971_6_218254_6$77346
$LN24@WndProc:
; Line 392
	mov	eax, DWORD PTR _csut_TFX_LastProbe
	mov	DWORD PTR [eax], 200			; 000000c8H
	mov	ecx, DWORD PTR _csut_TFX_CoverageBuffer
	mov	BYTE PTR [ecx+200], 49			; 00000031H
	mov	eax, DWORD PTR _csut_TFX_LastProbe
	mov	DWORD PTR [eax], 166			; 000000a6H
	mov	ecx, DWORD PTR _csut_TFX_CoverageBuffer
	mov	BYTE PTR [ecx+166], 49			; 00000031H
; Line 393
	cmp	DWORD PTR ?bNeedSave@?1??WndProc@@9@9, 0
	je	SHORT $LN101@WndProc
	push	OFFSET ?szTitleName@?1??WndProc@@9@9
	mov	eax, DWORD PTR _hwnd$[ebp]
	push	eax
	call	_AskAboutSave
	add	esp, 8
	movsx	ecx, ax
	cmp	ecx, 2
	je	SHORT $LN99@WndProc
	mov	edx, DWORD PTR _csut_TFX_LastProbe
	mov	DWORD PTR [edx], 267			; 0000010bH
	mov	eax, DWORD PTR _csut_TFX_CoverageBuffer
	mov	BYTE PTR [eax+267], 49			; 00000031H
	mov	DWORD PTR tv461[ebp], 1
	jmp	SHORT $LN100@WndProc
$LN99@WndProc:
	mov	ecx, DWORD PTR _csut_TFX_LastProbe
	mov	DWORD PTR [ecx], 268			; 0000010cH
	mov	edx, DWORD PTR _csut_TFX_CoverageBuffer
	mov	BYTE PTR [edx+268], 49			; 00000031H
	mov	DWORD PTR tv461[ebp], 0
$LN100@WndProc:
	mov	eax, DWORD PTR tv461[ebp]
	mov	DWORD PTR tv464[ebp], eax
	jmp	SHORT $LN102@WndProc
$LN101@WndProc:
	mov	ecx, DWORD PTR _csut_TFX_LastProbe
	mov	DWORD PTR [ecx], 269			; 0000010dH
	mov	edx, DWORD PTR _csut_TFX_CoverageBuffer
	mov	BYTE PTR [edx+269], 49			; 00000031H
	mov	DWORD PTR tv464[ebp], 1
$LN102@WndProc:
	cmp	DWORD PTR tv464[ebp], 0
	je	SHORT $LN23@WndProc
; Line 394
	mov	eax, DWORD PTR _csut_TFX_LastProbe
	mov	DWORD PTR [eax], 168			; 000000a8H
	mov	ecx, DWORD PTR _csut_TFX_CoverageBuffer
	mov	BYTE PTR [ecx+168], 49			; 00000031H
	mov	eax, DWORD PTR _hwnd$[ebp]
	push	eax
	call	DWORD PTR __imp__DestroyWindow@4
	mov	eax, DWORD PTR _csut_TFX_LastProbe
	mov	DWORD PTR [eax], 167			; 000000a7H
	mov	ecx, DWORD PTR _csut_TFX_CoverageBuffer
	mov	BYTE PTR [ecx+167], 49			; 00000031H
	jmp	SHORT $LN22@WndProc
$LN23@WndProc:
	mov	eax, DWORD PTR _csut_TFX_LastProbe
	mov	DWORD PTR [eax], 169			; 000000a9H
	mov	ecx, DWORD PTR _csut_TFX_CoverageBuffer
	mov	BYTE PTR [ecx+169], 49			; 00000031H
$LN22@WndProc:
; Line 396
	mov	eax, DWORD PTR _csut_TFX_LastProbe
	mov	DWORD PTR [eax], 236			; 000000ecH
	mov	ecx, DWORD PTR _csut_TFX_CoverageBuffer
	mov	BYTE PTR [ecx+236], 49			; 00000031H
	xor	eax, eax
	jmp	$LN85@WndProc
$LN21@WndProc:
; Line 398
	mov	eax, DWORD PTR _csut_TFX_LastProbe
	mov	DWORD PTR [eax], 201			; 000000c9H
	mov	ecx, DWORD PTR _csut_TFX_CoverageBuffer
	mov	BYTE PTR [ecx+201], 49			; 00000031H
	mov	eax, DWORD PTR _csut_TFX_LastProbe
	mov	DWORD PTR [eax], 170			; 000000aaH
	mov	ecx, DWORD PTR _csut_TFX_CoverageBuffer
	mov	BYTE PTR [ecx+170], 49			; 00000031H
; Line 399
	cmp	DWORD PTR ?bNeedSave@?1??WndProc@@9@9, 0
	je	SHORT $LN105@WndProc
	push	OFFSET ?szTitleName@?1??WndProc@@9@9
	mov	eax, DWORD PTR _hwnd$[ebp]
	push	eax
	call	_AskAboutSave
	add	esp, 8
	movsx	ecx, ax
	cmp	ecx, 2
	je	SHORT $LN103@WndProc
	mov	edx, DWORD PTR _csut_TFX_LastProbe
	mov	DWORD PTR [edx], 270			; 0000010eH
	mov	eax, DWORD PTR _csut_TFX_CoverageBuffer
	mov	BYTE PTR [eax+270], 49			; 00000031H
	mov	DWORD PTR tv480[ebp], 1
	jmp	SHORT $LN104@WndProc
$LN103@WndProc:
	mov	ecx, DWORD PTR _csut_TFX_LastProbe
	mov	DWORD PTR [ecx], 271			; 0000010fH
	mov	edx, DWORD PTR _csut_TFX_CoverageBuffer
	mov	BYTE PTR [edx+271], 49			; 00000031H
	mov	DWORD PTR tv480[ebp], 0
$LN104@WndProc:
	mov	eax, DWORD PTR tv480[ebp]
	mov	DWORD PTR tv483[ebp], eax
	jmp	SHORT $LN106@WndProc
$LN105@WndProc:
	mov	ecx, DWORD PTR _csut_TFX_LastProbe
	mov	DWORD PTR [ecx], 272			; 00000110H
	mov	edx, DWORD PTR _csut_TFX_CoverageBuffer
	mov	BYTE PTR [edx+272], 49			; 00000031H
	mov	DWORD PTR tv483[ebp], 1
$LN106@WndProc:
	cmp	DWORD PTR tv483[ebp], 0
	je	SHORT $LN20@WndProc
; Line 400
	mov	eax, DWORD PTR _csut_TFX_LastProbe
	mov	DWORD PTR [eax], 171			; 000000abH
	mov	ecx, DWORD PTR _csut_TFX_CoverageBuffer
	mov	BYTE PTR [ecx+171], 49			; 00000031H
	mov	eax, DWORD PTR _csut_TFX_LastProbe
	mov	DWORD PTR [eax], 237			; 000000edH
	mov	ecx, DWORD PTR _csut_TFX_CoverageBuffer
	mov	BYTE PTR [ecx+237], 49			; 00000031H
	mov	eax, 1
	jmp	$LN85@WndProc
	jmp	SHORT $LN19@WndProc
$LN20@WndProc:
	mov	eax, DWORD PTR _csut_TFX_LastProbe
	mov	DWORD PTR [eax], 172			; 000000acH
	mov	ecx, DWORD PTR _csut_TFX_CoverageBuffer
	mov	BYTE PTR [ecx+172], 49			; 00000031H
$LN19@WndProc:
; Line 402
	mov	eax, DWORD PTR _csut_TFX_LastProbe
	mov	DWORD PTR [eax], 238			; 000000eeH
	mov	ecx, DWORD PTR _csut_TFX_CoverageBuffer
	mov	BYTE PTR [ecx+238], 49			; 00000031H
	xor	eax, eax
	jmp	$LN85@WndProc
$LN18@WndProc:
; Line 404
	mov	eax, DWORD PTR _csut_TFX_LastProbe
	mov	DWORD PTR [eax], 202			; 000000caH
	mov	ecx, DWORD PTR _csut_TFX_CoverageBuffer
	mov	BYTE PTR [ecx+202], 49			; 00000031H
; Line 405
	call	_PopFontDeinitialize
; Line 406
	push	0
	call	DWORD PTR __imp__PostQuitMessage@4
; Line 407
	mov	eax, DWORD PTR _csut_TFX_LastProbe
	mov	DWORD PTR [eax], 239			; 000000efH
	mov	ecx, DWORD PTR _csut_TFX_CoverageBuffer
	mov	BYTE PTR [ecx+239], 49			; 00000031H
	xor	eax, eax
	jmp	$LN85@WndProc
$LN17@WndProc:
; Line 409
	mov	eax, DWORD PTR _csut_TFX_LastProbe
	mov	DWORD PTR [eax], 203			; 000000cbH
	mov	ecx, DWORD PTR _csut_TFX_CoverageBuffer
	mov	BYTE PTR [ecx+203], 49			; 00000031H
	mov	eax, DWORD PTR _csut_TFX_LastProbe
	mov	DWORD PTR [eax], 173			; 000000adH
	mov	ecx, DWORD PTR _csut_TFX_CoverageBuffer
	mov	BYTE PTR [ecx+173], 49			; 00000031H
; Line 412
	mov	eax, DWORD PTR _message$[ebp]
	cmp	eax, DWORD PTR ?messageFindReplace@?1??WndProc@@9@9
	jne	$LN16@WndProc
; Line 413
	mov	eax, DWORD PTR _csut_TFX_LastProbe
	mov	DWORD PTR [eax], 193			; 000000c1H
	mov	ecx, DWORD PTR _csut_TFX_CoverageBuffer
	mov	BYTE PTR [ecx+193], 49			; 00000031H
; Line 414
	mov	eax, DWORD PTR _lParam$[ebp]
	mov	DWORD PTR _pfr$[ebp], eax
	mov	eax, DWORD PTR _csut_TFX_LastProbe
	mov	DWORD PTR [eax], 174			; 000000aeH
	mov	ecx, DWORD PTR _csut_TFX_CoverageBuffer
	mov	BYTE PTR [ecx+174], 49			; 00000031H
; Line 416
	mov	eax, DWORD PTR _pfr$[ebp]
	mov	ecx, DWORD PTR [eax+12]
	and	ecx, 64					; 00000040H
	je	SHORT $LN15@WndProc
; Line 417
	mov	eax, DWORD PTR _csut_TFX_LastProbe
	mov	DWORD PTR [eax], 176			; 000000b0H
	mov	ecx, DWORD PTR _csut_TFX_CoverageBuffer
	mov	BYTE PTR [ecx+176], 49			; 00000031H
	mov	DWORD PTR _hDlgModeless, 0
	mov	eax, DWORD PTR _csut_TFX_LastProbe
	mov	DWORD PTR [eax], 175			; 000000afH
	mov	ecx, DWORD PTR _csut_TFX_CoverageBuffer
	mov	BYTE PTR [ecx+175], 49			; 00000031H
	jmp	SHORT $LN14@WndProc
$LN15@WndProc:
	mov	eax, DWORD PTR _csut_TFX_LastProbe
	mov	DWORD PTR [eax], 177			; 000000b1H
	mov	ecx, DWORD PTR _csut_TFX_CoverageBuffer
	mov	BYTE PTR [ecx+177], 49			; 00000031H
$LN14@WndProc:
; Line 419
	mov	eax, DWORD PTR _pfr$[ebp]
	mov	ecx, DWORD PTR [eax+12]
	and	ecx, 8
	je	$LN13@WndProc
; Line 420
	mov	eax, DWORD PTR _csut_TFX_LastProbe
	mov	DWORD PTR [eax], 181			; 000000b5H
	mov	ecx, DWORD PTR _csut_TFX_CoverageBuffer
	mov	BYTE PTR [ecx+181], 49			; 00000031H
	mov	eax, DWORD PTR _pfr$[ebp]
	push	eax
	push	OFFSET ?iOffset@?1??WndProc@@9@9
	mov	ecx, DWORD PTR ?hwndEdit@?1??WndProc@@9@9
	push	ecx
	call	_PopFindFindText
	add	esp, 12					; 0000000cH
	test	eax, eax
	jne	SHORT $LN12@WndProc
; Line 421
	mov	eax, DWORD PTR _csut_TFX_LastProbe
	mov	DWORD PTR [eax], 179			; 000000b3H
	mov	ecx, DWORD PTR _csut_TFX_CoverageBuffer
	mov	BYTE PTR [ecx+179], 49			; 00000031H
; Line 422
	push	OFFSET ??_C@_13NOLLCAOD@?$AA?$AA?$AA?$AA@
	push	OFFSET ??_C@_1CA@MMKCIGOJ@?$AAT?$AAe?$AAx?$AAt?$AA?5?$AAn?$AAo?$AAt?$AA?5?$AAf?$AAo?$AAu?$AAn?$AAd?$AA?$CB?$AA?$AA@
	mov	eax, DWORD PTR _hwnd$[ebp]
	push	eax
	call	_OkMessage
	add	esp, 12					; 0000000cH
	mov	eax, DWORD PTR _csut_TFX_LastProbe
	mov	DWORD PTR [eax], 178			; 000000b2H
	mov	ecx, DWORD PTR _csut_TFX_CoverageBuffer
	mov	BYTE PTR [ecx+178], 49			; 00000031H
	jmp	SHORT $LN11@WndProc
$LN12@WndProc:
	mov	eax, DWORD PTR _csut_TFX_LastProbe
	mov	DWORD PTR [eax], 180			; 000000b4H
	mov	ecx, DWORD PTR _csut_TFX_CoverageBuffer
	mov	BYTE PTR [ecx+180], 49			; 00000031H
$LN11@WndProc:
	jmp	SHORT $LN10@WndProc
$LN13@WndProc:
	mov	eax, DWORD PTR _csut_TFX_LastProbe
	mov	DWORD PTR [eax], 182			; 000000b6H
	mov	ecx, DWORD PTR _csut_TFX_CoverageBuffer
	mov	BYTE PTR [ecx+182], 49			; 00000031H
$LN10@WndProc:
; Line 424
	mov	eax, DWORD PTR _pfr$[ebp]
	mov	ecx, DWORD PTR [eax+12]
	and	ecx, 16					; 00000010H
	je	SHORT $LN109@WndProc
	mov	edx, DWORD PTR _csut_TFX_LastProbe
	mov	DWORD PTR [edx], 273			; 00000111H
	mov	eax, DWORD PTR _csut_TFX_CoverageBuffer
	mov	BYTE PTR [eax+273], 49			; 00000031H
	mov	DWORD PTR tv529[ebp], 1
	jmp	SHORT $LN110@WndProc
$LN109@WndProc:
	mov	ecx, DWORD PTR _pfr$[ebp]
	mov	edx, DWORD PTR [ecx+12]
	and	edx, 32					; 00000020H
	je	SHORT $LN107@WndProc
	mov	eax, DWORD PTR _csut_TFX_LastProbe
	mov	DWORD PTR [eax], 274			; 00000112H
	mov	ecx, DWORD PTR _csut_TFX_CoverageBuffer
	mov	BYTE PTR [ecx+274], 49			; 00000031H
	mov	DWORD PTR tv527[ebp], 1
	jmp	SHORT $LN108@WndProc
$LN107@WndProc:
	mov	edx, DWORD PTR _csut_TFX_LastProbe
	mov	DWORD PTR [edx], 275			; 00000113H
	mov	eax, DWORD PTR _csut_TFX_CoverageBuffer
	mov	BYTE PTR [eax+275], 49			; 00000031H
	mov	DWORD PTR tv527[ebp], 0
$LN108@WndProc:
	mov	ecx, DWORD PTR tv527[ebp]
	mov	DWORD PTR tv529[ebp], ecx
$LN110@WndProc:
	cmp	DWORD PTR tv529[ebp], 0
	je	$LN9@WndProc
; Line 425
	mov	eax, DWORD PTR _csut_TFX_LastProbe
	mov	DWORD PTR [eax], 186			; 000000baH
	mov	ecx, DWORD PTR _csut_TFX_CoverageBuffer
	mov	BYTE PTR [ecx+186], 49			; 00000031H
	mov	eax, DWORD PTR _pfr$[ebp]
	push	eax
	push	OFFSET ?iOffset@?1??WndProc@@9@9
	mov	ecx, DWORD PTR ?hwndEdit@?1??WndProc@@9@9
	push	ecx
	call	_PopFindReplaceText
	add	esp, 12					; 0000000cH
	test	eax, eax
	jne	SHORT $LN8@WndProc
; Line 426
	mov	eax, DWORD PTR _csut_TFX_LastProbe
	mov	DWORD PTR [eax], 184			; 000000b8H
	mov	ecx, DWORD PTR _csut_TFX_CoverageBuffer
	mov	BYTE PTR [ecx+184], 49			; 00000031H
; Line 427
	push	OFFSET ??_C@_13NOLLCAOD@?$AA?$AA?$AA?$AA@
	push	OFFSET ??_C@_1CA@MMKCIGOJ@?$AAT?$AAe?$AAx?$AAt?$AA?5?$AAn?$AAo?$AAt?$AA?5?$AAf?$AAo?$AAu?$AAn?$AAd?$AA?$CB?$AA?$AA@
	mov	eax, DWORD PTR _hwnd$[ebp]
	push	eax
	call	_OkMessage
	add	esp, 12					; 0000000cH
	mov	eax, DWORD PTR _csut_TFX_LastProbe
	mov	DWORD PTR [eax], 183			; 000000b7H
	mov	ecx, DWORD PTR _csut_TFX_CoverageBuffer
	mov	BYTE PTR [ecx+183], 49			; 00000031H
	jmp	SHORT $LN7@WndProc
$LN8@WndProc:
	mov	eax, DWORD PTR _csut_TFX_LastProbe
	mov	DWORD PTR [eax], 185			; 000000b9H
	mov	ecx, DWORD PTR _csut_TFX_CoverageBuffer
	mov	BYTE PTR [ecx+185], 49			; 00000031H
$LN7@WndProc:
	jmp	SHORT $LN6@WndProc
$LN9@WndProc:
	mov	eax, DWORD PTR _csut_TFX_LastProbe
	mov	DWORD PTR [eax], 187			; 000000bbH
	mov	ecx, DWORD PTR _csut_TFX_CoverageBuffer
	mov	BYTE PTR [ecx+187], 49			; 00000031H
$LN6@WndProc:
; Line 429
	mov	eax, DWORD PTR _pfr$[ebp]
	mov	ecx, DWORD PTR [eax+12]
	and	ecx, 32					; 00000020H
	je	$LN5@WndProc
; Line 430
	mov	eax, DWORD PTR _csut_TFX_LastProbe
	mov	DWORD PTR [eax], 191			; 000000bfH
	mov	ecx, DWORD PTR _csut_TFX_CoverageBuffer
	mov	BYTE PTR [ecx+191], 49			; 00000031H
$LN4@WndProc:
	mov	eax, DWORD PTR _pfr$[ebp]
	push	eax
	push	OFFSET ?iOffset@?1??WndProc@@9@9
	mov	ecx, DWORD PTR ?hwndEdit@?1??WndProc@@9@9
	push	ecx
	call	_PopFindReplaceText
	add	esp, 12					; 0000000cH
	test	eax, eax
	je	SHORT $LN3@WndProc
	mov	eax, DWORD PTR _csut_TFX_LastProbe
	mov	DWORD PTR [eax], 189			; 000000bdH
	mov	ecx, DWORD PTR _csut_TFX_CoverageBuffer
	mov	BYTE PTR [ecx+189], 49			; 00000031H
	mov	eax, DWORD PTR _csut_TFX_LastProbe
	mov	DWORD PTR [eax], 188			; 000000bcH
	mov	ecx, DWORD PTR _csut_TFX_CoverageBuffer
	mov	BYTE PTR [ecx+188], 49			; 00000031H
	jmp	SHORT $LN4@WndProc
$LN3@WndProc:
	mov	eax, DWORD PTR _csut_TFX_LastProbe
	mov	DWORD PTR [eax], 190			; 000000beH
	mov	ecx, DWORD PTR _csut_TFX_CoverageBuffer
	mov	BYTE PTR [ecx+190], 49			; 00000031H
	jmp	SHORT $LN2@WndProc
$LN5@WndProc:
	mov	eax, DWORD PTR _csut_TFX_LastProbe
	mov	DWORD PTR [eax], 192			; 000000c0H
	mov	ecx, DWORD PTR _csut_TFX_CoverageBuffer
	mov	BYTE PTR [ecx+192], 49			; 00000031H
$LN2@WndProc:
; Line 432
	mov	eax, DWORD PTR _csut_TFX_LastProbe
	mov	DWORD PTR [eax], 240			; 000000f0H
	mov	ecx, DWORD PTR _csut_TFX_CoverageBuffer
	mov	BYTE PTR [ecx+240], 49			; 00000031H
	xor	eax, eax
	jmp	SHORT $LN85@WndProc
	jmp	SHORT $LN1@WndProc
$LN16@WndProc:
; Line 433
	mov	eax, DWORD PTR _csut_TFX_LastProbe
	mov	DWORD PTR [eax], 194			; 000000c2H
	mov	ecx, DWORD PTR _csut_TFX_CoverageBuffer
	mov	BYTE PTR [ecx+194], 49			; 00000031H
$LN1@WndProc:
; Line 434
	mov	eax, DWORD PTR _csut_TFX_LastProbe
	mov	DWORD PTR [eax], 206			; 000000ceH
	mov	ecx, DWORD PTR _csut_TFX_CoverageBuffer
	mov	BYTE PTR [ecx+206], 49			; 00000031H
$codescroll_217971_6_218254_6$77346:
; Line 436
	mov	eax, DWORD PTR _lParam$[ebp]
	push	eax
	mov	ecx, DWORD PTR _wParam$[ebp]
	push	ecx
	mov	edx, DWORD PTR _message$[ebp]
	push	edx
	mov	eax, DWORD PTR _hwnd$[ebp]
	push	eax
	call	DWORD PTR __imp__DefWindowProcW@16
	mov	DWORD PTR _csut_ret$77432[ebp], eax
	mov	eax, DWORD PTR _csut_TFX_LastProbe
	mov	DWORD PTR [eax], 241			; 000000f1H
	mov	ecx, DWORD PTR _csut_TFX_CoverageBuffer
	mov	BYTE PTR [ecx+241], 49			; 00000031H
	mov	eax, DWORD PTR _csut_ret$77432[ebp]
$LN85@WndProc:
; Line 437
	pop	edi
	pop	esi
	pop	ebx
	mov	esp, ebp
	pop	ebp
	ret	16					; 00000010H
	npad	2
$LN112@WndProc:
	DD	$LN82@WndProc
	DD	$LN18@WndProc
	DD	$LN17@WndProc
	DD	$LN17@WndProc
	DD	$LN80@WndProc
	DD	$LN17@WndProc
	DD	$LN81@WndProc
$LN113@WndProc:
	DD	$LN64@WndProc
	DD	$LN61@WndProc
	DD	$LN54@WndProc
	DD	$LN49@WndProc
	DD	$LN44@WndProc
	DD	$LN41@WndProc
	DD	$LN40@WndProc
	DD	$LN39@WndProc
	DD	$LN38@WndProc
	DD	$LN37@WndProc
	DD	$LN36@WndProc
	DD	$LN35@WndProc
	DD	$LN34@WndProc
	DD	$LN33@WndProc
	DD	$LN30@WndProc
	DD	$LN29@WndProc
	DD	$LN26@WndProc
	DD	$LN25@WndProc
_WndProc@16 ENDP
_TEXT	ENDS
EXTRN	__imp__EndDialog@8:PROC
; Function compile flags: /Odtp /ZI
;	COMDAT _AboutDlgProc@16
_TEXT	SEGMENT
tv73 = -68						; size = 4
tv65 = -68						; size = 4
_hDlg$ = 8						; size = 4
_message$ = 12						; size = 4
_wParam$ = 16						; size = 4
_lParam$ = 20						; size = 4
_AboutDlgProc@16 PROC					; COMDAT
; Line 447
	push	ebp
	mov	ebp, esp
	sub	esp, 68					; 00000044H
	push	ebx
	push	esi
	push	edi
	mov	eax, DWORD PTR _csut_TFX_LastProbe
	mov	DWORD PTR [eax], 245			; 000000f5H
	mov	ecx, DWORD PTR _csut_TFX_CoverageBuffer
	mov	BYTE PTR [ecx+245], 49			; 00000031H
; Line 448
	mov	eax, DWORD PTR _message$[ebp]
	mov	DWORD PTR tv65[ebp], eax
	cmp	DWORD PTR tv65[ebp], 272		; 00000110H
	je	SHORT $LN5@AboutDlgPr
	cmp	DWORD PTR tv65[ebp], 273		; 00000111H
	je	SHORT $LN4@AboutDlgPr
	jmp	$LN6@AboutDlgPr
$LN5@AboutDlgPr:
; Line 450
	mov	eax, DWORD PTR _csut_TFX_LastProbe
	mov	DWORD PTR [eax], 246			; 000000f6H
	mov	ecx, DWORD PTR _csut_TFX_CoverageBuffer
	mov	BYTE PTR [ecx+246], 49			; 00000031H
; Line 451
	mov	eax, DWORD PTR _csut_TFX_LastProbe
	mov	DWORD PTR [eax], 250			; 000000faH
	mov	ecx, DWORD PTR _csut_TFX_CoverageBuffer
	mov	BYTE PTR [ecx+250], 49			; 00000031H
	mov	eax, 1
	jmp	$LN8@AboutDlgPr
$LN4@AboutDlgPr:
; Line 453
	mov	eax, DWORD PTR _csut_TFX_LastProbe
	mov	DWORD PTR [eax], 247			; 000000f7H
	mov	ecx, DWORD PTR _csut_TFX_CoverageBuffer
	mov	BYTE PTR [ecx+247], 49			; 00000031H
	mov	eax, DWORD PTR _csut_TFX_LastProbe
	mov	DWORD PTR [eax], 242			; 000000f2H
	mov	ecx, DWORD PTR _csut_TFX_CoverageBuffer
	mov	BYTE PTR [ecx+242], 49			; 00000031H
; Line 454
	mov	eax, DWORD PTR _wParam$[ebp]
	and	eax, 65535				; 0000ffffH
	movzx	ecx, ax
	mov	DWORD PTR tv73[ebp], ecx
	cmp	DWORD PTR tv73[ebp], 1
	je	SHORT $LN1@AboutDlgPr
	jmp	SHORT $LN2@AboutDlgPr
$LN1@AboutDlgPr:
; Line 456
	mov	eax, DWORD PTR _csut_TFX_LastProbe
	mov	DWORD PTR [eax], 243			; 000000f3H
	mov	ecx, DWORD PTR _csut_TFX_CoverageBuffer
	mov	BYTE PTR [ecx+243], 49			; 00000031H
; Line 457
	push	0
	mov	eax, DWORD PTR _hDlg$[ebp]
	push	eax
	call	DWORD PTR __imp__EndDialog@8
; Line 458
	mov	eax, DWORD PTR _csut_TFX_LastProbe
	mov	DWORD PTR [eax], 251			; 000000fbH
	mov	ecx, DWORD PTR _csut_TFX_CoverageBuffer
	mov	BYTE PTR [ecx+251], 49			; 00000031H
	mov	eax, 1
	jmp	SHORT $LN8@AboutDlgPr
	jmp	SHORT $codescroll_218267_11_218272_11$77455
$LN2@AboutDlgPr:
; Line 459
	mov	eax, DWORD PTR _csut_TFX_LastProbe
	mov	DWORD PTR [eax], 244			; 000000f4H
	mov	ecx, DWORD PTR _csut_TFX_CoverageBuffer
	mov	BYTE PTR [ecx+244], 49			; 00000031H
$codescroll_218267_11_218272_11$77455:
; Line 460
	mov	eax, DWORD PTR _csut_TFX_LastProbe
	mov	DWORD PTR [eax], 249			; 000000f9H
	mov	ecx, DWORD PTR _csut_TFX_CoverageBuffer
	mov	BYTE PTR [ecx+249], 49			; 00000031H
	jmp	SHORT $codescroll_218261_6_218274_6$77456
	jmp	SHORT $codescroll_218261_6_218274_6$77456
$LN6@AboutDlgPr:
; Line 461
	mov	eax, DWORD PTR _csut_TFX_LastProbe
	mov	DWORD PTR [eax], 248			; 000000f8H
	mov	ecx, DWORD PTR _csut_TFX_CoverageBuffer
	mov	BYTE PTR [ecx+248], 49			; 00000031H
$codescroll_218261_6_218274_6$77456:
; Line 462
	mov	eax, DWORD PTR _csut_TFX_LastProbe
	mov	DWORD PTR [eax], 252			; 000000fcH
	mov	ecx, DWORD PTR _csut_TFX_CoverageBuffer
	mov	BYTE PTR [ecx+252], 49			; 00000031H
	xor	eax, eax
$LN8@AboutDlgPr:
; Line 463
	pop	edi
	pop	esi
	pop	ebx
	mov	esp, ebp
	pop	ebp
	ret	16					; 00000010H
_AboutDlgProc@16 ENDP
_TEXT	ENDS
PUBLIC	??_C@_0BC@BIIKKLIG@AboutDlgProc_ret0?$AA@	; `string'
EXTRN	_csut_TFX_writeIntOutput:PROC
;	COMDAT ??_C@_0BC@BIIKKLIG@AboutDlgProc_ret0?$AA@
; File f:\20120709_enterprise_ct_v2.0_workspace\kljl\unittest\aboutdlgproc_csut0.c
CONST	SEGMENT
??_C@_0BC@BIIKKLIG@AboutDlgProc_ret0?$AA@ DB 'AboutDlgProc_ret0', 00H ; `string'
; Function compile flags: /Odtp /ZI
CONST	ENDS
;	COMDAT _AboutDlgProc_csut0
_TEXT	SEGMENT
_AboutDlgProc_ret0$ = -20				; size = 4
_lParam$ = -16						; size = 4
_wParam$ = -12						; size = 4
_message$ = -8						; size = 4
_hDlg$ = -4						; size = 4
_csutp$ = 8						; size = 4
_AboutDlgProc_csut0 PROC				; COMDAT
; Line 18
	push	ebp
	mov	ebp, esp
	sub	esp, 84					; 00000054H
	push	ebx
	push	esi
	push	edi
; Line 23
	mov	DWORD PTR _AboutDlgProc_ret0$[ebp], 0
; Line 25
	mov	eax, DWORD PTR _csutp$[ebp]
	mov	ecx, DWORD PTR [eax]
	mov	DWORD PTR _message$[ebp], ecx
; Line 26
	mov	eax, DWORD PTR _csutp$[ebp]
	mov	ecx, DWORD PTR [eax+4]
	mov	DWORD PTR _wParam$[ebp], ecx
; Line 27
	mov	eax, DWORD PTR _csutp$[ebp]
	mov	ecx, DWORD PTR [eax+8]
	mov	DWORD PTR _lParam$[ebp], ecx
; Line 29
	mov	eax, DWORD PTR _lParam$[ebp]
	push	eax
	mov	ecx, DWORD PTR _wParam$[ebp]
	push	ecx
	mov	edx, DWORD PTR _message$[ebp]
	push	edx
	mov	eax, DWORD PTR _hDlg$[ebp]
	push	eax
	call	_AboutDlgProc@16
	mov	DWORD PTR _AboutDlgProc_ret0$[ebp], eax
; Line 30
	push	0
	push	0
	push	4
	mov	eax, DWORD PTR _AboutDlgProc_ret0$[ebp]
	cdq
	push	edx
	push	eax
	push	OFFSET ??_C@_0BC@BIIKKLIG@AboutDlgProc_ret0?$AA@
	call	_csut_TFX_writeIntOutput
	add	esp, 24					; 00000018H
; Line 32
	pop	edi
	pop	esi
	pop	ebx
	mov	esp, ebp
	pop	ebp
	ret	0
_AboutDlgProc_csut0 ENDP
_TEXT	ENDS
PUBLIC	??_C@_0N@IPEEKDEP@WndProc_ret0?$AA@		; `string'
;	COMDAT ??_C@_0N@IPEEKDEP@WndProc_ret0?$AA@
; File f:\20120709_enterprise_ct_v2.0_workspace\kljl\unittest\wndproc_csut0.c
CONST	SEGMENT
??_C@_0N@IPEEKDEP@WndProc_ret0?$AA@ DB 'WndProc_ret0', 00H ; `string'
; Function compile flags: /Odtp /ZI
CONST	ENDS
;	COMDAT _WndProc_csut0
_TEXT	SEGMENT
_WndProc_ret0$ = -20					; size = 4
_lParam$ = -16						; size = 4
_wParam$ = -12						; size = 4
_message$ = -8						; size = 4
_hwnd$ = -4						; size = 4
_csutp$ = 8						; size = 4
_WndProc_csut0 PROC					; COMDAT
; Line 19
	push	ebp
	mov	ebp, esp
	sub	esp, 84					; 00000054H
	push	ebx
	push	esi
	push	edi
; Line 24
	mov	DWORD PTR _WndProc_ret0$[ebp], 0
; Line 26
	mov	eax, DWORD PTR _csutp$[ebp]
	mov	ecx, DWORD PTR [eax]
	mov	DWORD PTR _message$[ebp], ecx
; Line 27
	mov	eax, DWORD PTR _csutp$[ebp]
	mov	ecx, DWORD PTR [eax+4]
	mov	DWORD PTR _wParam$[ebp], ecx
; Line 28
	mov	eax, DWORD PTR _csutp$[ebp]
	mov	ecx, DWORD PTR [eax+8]
	mov	DWORD PTR _lParam$[ebp], ecx
; Line 29
	mov	eax, DWORD PTR _csutp$[ebp]
	mov	cx, WORD PTR [eax+12]
	mov	WORD PTR _szAppName, cx
; Line 31
	mov	eax, DWORD PTR _lParam$[ebp]
	push	eax
	mov	ecx, DWORD PTR _wParam$[ebp]
	push	ecx
	mov	edx, DWORD PTR _message$[ebp]
	push	edx
	mov	eax, DWORD PTR _hwnd$[ebp]
	push	eax
	call	_WndProc@16
	mov	DWORD PTR _WndProc_ret0$[ebp], eax
; Line 32
	push	0
	push	0
	push	4
	mov	eax, DWORD PTR _WndProc_ret0$[ebp]
	cdq
	push	edx
	push	eax
	push	OFFSET ??_C@_0N@IPEEKDEP@WndProc_ret0?$AA@
	call	_csut_TFX_writeIntOutput
	add	esp, 24					; 00000018H
; Line 34
	pop	edi
	pop	esi
	pop	ebx
	mov	esp, ebp
	pop	ebp
	ret	0
_WndProc_csut0 ENDP
_TEXT	ENDS
END
